(lp0
I160
aI161
aI162
aI163
aI164
aI165
aI166
aI167
aI168
aI169
aI170
aI171
aI172
aI173
aI174
aI175
aI176
aI177
aI178
aI179
aI180
aI181
aI182
aI183
aI184
aI185
aI186
aI187
aI188
aI189
aI190
aI191
aI192
aI193
aI194
aI195
aI196
aI197
aI198
aI199
aI200
aI201
aI202
aI203
aI204
aI205
aI206
aI207
aI208
aI209
aI210
aI211
aI212
aI213
aI214
aI215
aI216
aI217
aI218
aI219
aI220
aI221
aI222
aI223
aI224
aI225
aI226
aI227
aI228
aI229
aI230
aI231
aI232
aI233
aI234
aI235
aI236
aI237
aI238
aI239
aI240
aI241
aI242
aI243
aI244
aI245
aI246
aI247
aI248
aI249
aI250
aI251
aI252
aI253
aI254
aI255
aI256
aI257
aI258
aI259
aI260
aI261
aI262
aI263
aI264
aI265
aI266
aI267
aI268
aI269
aI270
aI271
aI272
aI273
aI274
aI275
aI276
aI277
aI278
aI279
aI280
aI281
aI282
aI283
aI284
aI285
aI286
aI287
aI288
aI289
aI290
aI291
aI292
aI293
aI294
aI295
aI296
aI297
aI298
aI299
aI300
aI301
aI302
aI303
aI304
aI305
aI306
aI307
aI308
aI309
aI310
aI311
aI312
aI313
aI314
aI315
aI316
aI317
aI318
aI319
aI320
aI321
aI322
aI323
aI324
aI325
aI326
aI327
aI328
aI329
aI330
aI331
aI332
aI333
aI334
aI335
aI336
aI337
aI338
aI339
aI340
aI341
aI342
aI343
aI344
aI345
aI346
aI347
aI348
aI349
aI350
aI351
aI352
aI353
aI354
aI355
aI356
aI357
aI358
aI359
aI360
aI361
aI362
aI363
aI364
aI365
aI366
aI367
aI368
aI369
aI370
aI371
aI372
aI373
aI374
aI375
aI376
aI377
aI378
aI379
aI380
aI381
aI382
aI383
aI384
aI385
aI386
aI387
aI388
aI389
aI390
aI391
aI392
aI393
aI394
aI395
aI396
aI397
aI398
aI399
aI400
aI401
aI402
aI403
aI404
aI405
aI406
aI407
aI408
aI409
aI410
aI411
aI412
aI413
aI414
aI415
aI416
aI417
aI418
aI419
aI420
aI421
aI422
aI423
aI424
aI425
aI426
aI427
aI428
aI429
aI430
aI431
aI432
aI433
aI434
aI435
aI436
aI437
aI438
aI439
aI440
aI441
aI442
aI443
aI444
aI445
aI446
aI447
aI448
aI449
aI450
aI451
aI452
aI453
aI454
aI455
aI456
aI457
aI458
aI459
aI460
aI461
aI462
aI463
aI464
aI465
aI466
aI467
aI468
aI469
aI470
aI471
aI472
aI473
aI474
aI475
aI476
aI477
aI478
aI479
aI480
aI481
aI482
aI483
aI484
aI485
aI486
aI487
aI488
aI489
aI490
aI491
aI492
aI493
aI494
aI495
aI496
aI497
aI498
aI499
aI500
aI501
aI502
aI503
aI504
aI505
aI506
aI507
aI508
aI509
aI510
aI511
aI512
aI513
aI514
aI515
aI516
aI517
aI518
aI519
aI520
aI521
aI522
aI523
aI524
aI525
aI526
aI527
aI528
aI529
aI530
aI531
aI532
aI533
aI534
aI535
aI536
aI537
aI538
aI539
aI540
aI541
aI542
aI543
aI544
aI545
aI546
aI547
aI548
aI549
aI550
aI551
aI552
aI553
aI554
aI555
aI556
aI557
aI558
aI559
aI560
aI561
aI562
aI563
aI564
aI565
aI566
aI567
aI568
aI569
aI570
aI571
aI572
aI573
aI574
aI575
aI576
aI577
aI578
aI579
aI580
aI581
aI582
aI583
aI584
aI585
aI586
aI587
aI588
aI589
aI590
aI591
aI592
aI593
aI594
aI595
aI596
aI597
aI598
aI599
aI600
aI601
aI602
aI603
aI604
aI605
aI606
aI607
aI608
aI609
aI610
aI611
aI612
aI613
aI614
aI615
aI616
aI617
aI618
aI619
aI620
aI621
aI622
aI623
aI624
aI625
aI626
aI627
aI628
aI629
aI630
aI631
aI632
aI633
aI634
aI635
aI636
aI637
aI638
aI639
aI640
aI641
aI642
aI643
aI644
aI645
aI646
aI647
aI648
aI649
aI650
aI651
aI652
aI653
aI654
aI655
aI656
aI657
aI658
aI659
aI660
aI661
aI662
aI663
aI664
aI665
aI666
aI667
aI668
aI669
aI670
aI671
aI672
aI673
aI674
aI675
aI676
aI677
aI678
aI679
aI680
aI681
aI682
aI683
aI684
aI685
aI686
aI687
aI688
aI689
aI690
aI691
aI692
aI693
aI694
aI695
aI696
aI697
aI698
aI699
aI700
aI701
aI702
aI703
aI704
aI705
aI706
aI707
aI708
aI709
aI710
aI711
aI712
aI713
aI714
aI715
aI716
aI717
aI718
aI719
aI720
aI721
aI722
aI723
aI724
aI725
aI726
aI727
aI728
aI729
aI730
aI731
aI732
aI733
aI734
aI735
aI736
aI737
aI738
aI739
aI740
aI741
aI742
aI743
aI744
aI745
aI746
aI747
aI748
aI749
aI750
aI751
aI752
aI753
aI754
aI755
aI756
aI757
aI758
aI759
aI760
aI761
aI762
aI763
aI764
aI765
aI766
aI767
aI768
aI769
aI770
aI771
aI772
aI773
aI774
aI775
aI776
aI777
aI778
aI779
aI780
aI781
aI782
aI783
aI784
aI785
aI786
aI787
aI788
aI789
aI790
aI791
aI792
aI793
aI794
aI795
aI796
aI797
aI798
aI799
aI800
aI801
aI802
aI803
aI804
aI805
aI806
aI807
aI808
aI809
aI810
aI811
aI812
aI813
aI814
aI815
aI816
aI817
aI818
aI819
aI820
aI821
aI822
aI823
aI824
aI825
aI826
aI827
aI828
aI829
aI830
aI831
aI832
aI833
aI834
aI835
aI836
aI837
aI838
aI839
aI840
aI841
aI842
aI843
aI844
aI845
aI846
aI847
aI848
aI849
aI850
aI851
aI852
aI853
aI854
aI855
aI856
aI857
aI858
aI859
aI860
aI861
aI862
aI863
aI864
aI865
aI866
aI867
aI868
aI869
aI870
aI871
aI872
aI873
aI874
aI875
aI876
aI877
aI878
aI879
aI880
aI881
aI882
aI883
aI884
aI885
aI886
aI887
aI888
aI889
aI890
aI891
aI892
aI893
aI894
aI895
aI896
aI897
aI898
aI899
aI900
aI901
aI902
aI903
aI904
aI905
aI906
aI907
aI908
aI909
aI910
aI911
aI912
aI913
aI914
aI915
aI916
aI917
aI918
aI919
aI920
aI921
aI922
aI923
aI924
aI925
aI926
aI927
aI928
aI929
aI930
aI931
aI932
aI933
aI934
aI935
aI936
aI937
aI938
aI939
aI940
aI941
aI942
aI943
aI944
aI945
aI946
aI947
aI948
aI949
aI950
aI951
aI952
aI953
aI954
aI955
aI956
aI957
aI958
aI959
aI960
aI961
aI962
aI963
aI964
aI965
aI966
aI967
aI968
aI969
aI970
aI971
aI972
aI973
aI974
aI975
aI976
aI977
aI978
aI979
aI980
aI981
aI982
aI983
aI984
aI985
aI986
aI987
aI988
aI989
aI990
aI991
aI992
aI993
aI994
aI995
aI996
aI997
aI998
aI999
aI1000
aI1001
aI1002
aI1003
aI1004
aI1005
aI1006
aI1007
aI1008
aI1009
aI1010
aI1011
aI1012
aI1013
aI1014
aI1015
aI1016
aI1017
aI1018
aI1019
aI1020
aI1021
aI1022
aI1023
aI1024
aI1025
aI1026
aI1027
aI1028
aI1029
aI1030
aI1031
aI1032
aI1033
aI1034
aI1035
aI1036
aI1037
aI1038
aI1039
aI1040
aI1041
aI1042
aI1043
aI1044
aI1045
aI1046
aI1047
aI1048
aI1049
aI1050
aI1051
aI1052
aI1053
aI1054
aI1055
aI1056
aI1057
aI1058
aI1059
aI1060
aI1061
aI1062
aI1063
aI1064
aI1065
aI1066
aI1067
aI1068
aI1069
aI1070
aI1071
aI1072
aI1073
aI1074
aI1075
aI1076
aI1077
aI1078
aI1079
aI1080
aI1081
aI1082
aI1083
aI1084
aI1085
aI1086
aI1087
aI1088
aI1089
aI1090
aI1091
aI1092
aI1093
aI1094
aI1095
aI1096
aI1097
aI1098
aI1099
aI1100
aI1101
aI1102
aI1103
aI1104
aI1105
aI1106
aI1107
aI1108
aI1109
aI1110
aI1111
aI1112
aI1113
aI1114
aI1115
aI1116
aI1117
aI1118
aI1119
aI1120
aI1121
aI1122
aI1123
aI1124
aI1125
aI1126
aI1127
aI1128
aI1129
aI1130
aI1131
aI1132
aI1133
aI1134
aI1135
aI1136
aI1137
aI1138
aI1139
aI1140
aI1141
aI1142
aI1143
aI1144
aI1145
aI1146
aI1147
aI1148
aI1149
aI1150
aI1151
aI1152
aI1153
aI1154
aI1155
aI1156
aI1157
aI1158
aI1159
aI1160
aI1161
aI1162
aI1163
aI1164
aI1165
aI1166
aI1167
aI1168
aI1169
aI1170
aI1171
aI1172
aI1173
aI1174
aI1175
aI1176
aI1177
aI1178
aI1179
aI1180
aI1181
aI1182
aI1183
aI1184
aI1185
aI1186
aI1187
aI1188
aI1189
aI1190
aI1191
aI1192
aI1193
aI1194
aI1195
aI1196
aI1197
aI1198
aI1199
aI1200
aI1201
aI1202
aI1203
aI1204
aI1205
aI1206
aI1207
aI1208
aI1209
aI1210
aI1211
aI1212
aI1213
aI1214
aI1215
aI1216
aI1217
aI1218
aI1219
aI1220
aI1221
aI1222
aI1223
aI1224
aI1225
aI1226
aI1227
aI1228
aI1229
aI1230
aI1231
aI1232
aI1233
aI1234
aI1235
aI1236
aI1237
aI1238
aI1239
aI1240
aI1241
aI1242
aI1243
aI1244
aI1245
aI1246
aI1247
aI1248
aI1249
aI1250
aI1251
aI1252
aI1253
aI1254
aI1255
aI1256
aI1257
aI1258
aI1259
aI1260
aI1261
aI1262
aI1263
aI1264
aI1265
aI1266
aI1267
aI1268
aI1269
aI1270
aI1271
aI1272
aI1273
aI1274
aI1275
aI1276
aI1277
aI1278
aI1279
aI1280
aI1281
aI1282
aI1283
aI1284
aI1285
aI1286
aI1287
aI1288
aI1289
aI1290
aI1291
aI1292
aI1293
aI1294
aI1295
aI1296
aI1297
aI1298
aI1299
aI1300
aI1301
aI1302
aI1303
aI1304
aI1305
aI1306
aI1307
aI1308
aI1309
aI1310
aI1311
aI1312
aI1313
aI1314
aI1315
aI1316
aI1317
aI1318
aI1319
aI1320
aI1321
aI1322
aI1323
aI1324
aI1325
aI1326
aI1327
aI1328
aI1329
aI1330
aI1331
aI1332
aI1333
aI1334
aI1335
aI1336
aI1337
aI1338
aI1339
aI1340
aI1341
aI1342
aI1343
aI1344
aI1345
aI1346
aI1347
aI1348
aI1349
aI1350
aI1351
aI1352
aI1353
aI1354
aI1355
aI1356
aI1357
aI1358
aI1359
aI1360
aI1361
aI1362
aI1363
aI1364
aI1365
aI1366
aI1367
aI1368
aI1369
aI1370
aI1371
aI1372
aI1373
aI1374
aI1375
aI1376
aI1377
aI1378
aI1379
aI1380
aI1381
aI1382
aI1383
aI1384
aI1385
aI1386
aI1387
aI1388
aI1389
aI1390
aI1391
aI1392
aI1393
aI1394
aI1395
aI1396
aI1397
aI1398
aI1399
aI1400
aI1401
aI1402
aI1403
aI1404
aI1405
aI1406
aI1407
aI1408
aI1409
aI1410
aI1411
aI1412
aI1413
aI1414
aI1415
aI1416
aI1417
aI1418
aI1419
aI1420
aI1421
aI1422
aI1423
aI1424
aI1425
aI1426
aI1427
aI1428
aI1429
aI1430
aI1431
aI1432
aI1433
aI1434
aI1435
aI1436
aI1437
aI1438
aI1439
aI1440
aI1441
aI1442
aI1443
aI1444
aI1445
aI1446
aI1447
aI1448
aI1449
aI1450
aI1451
aI1452
aI1453
aI1454
aI1455
aI1456
aI1457
aI1458
aI1459
aI1460
aI1461
aI1462
aI1463
aI1464
aI1465
aI1466
aI1467
aI1468
aI1469
aI1470
aI1471
aI1472
aI1473
aI1474
aI1475
aI1476
aI1477
aI1478
aI1479
aI1480
aI1481
aI1482
aI1483
aI1484
aI1485
aI1486
aI1487
aI1488
aI1489
aI1490
aI1491
aI1492
aI1493
aI1494
aI1495
aI1496
aI1497
aI1498
aI1499
aI1500
aI1501
aI1502
aI1503
aI1504
aI1505
aI1506
aI1507
aI1508
aI1509
aI1510
aI1511
aI1512
aI1513
aI1514
aI1515
aI1516
aI1517
aI1518
aI1519
aI1520
aI1521
aI1522
aI1523
aI1524
aI1525
aI1526
aI1527
aI1528
aI1529
aI1530
aI1531
aI1532
aI1533
aI1534
aI1535
aI1536
aI1537
aI1538
aI1539
aI1540
aI1541
aI1542
aI1543
aI1544
aI1545
aI1546
aI1547
aI1548
aI1549
aI1550
aI1551
aI1552
aI1553
aI1554
aI1555
aI1556
aI1557
aI1558
aI1559
aI1560
aI1561
aI1562
aI1563
aI1564
aI1565
aI1566
aI1567
aI1568
aI1569
aI1570
aI1571
aI1572
aI1573
aI1574
aI1575
aI1576
aI1577
aI1578
aI1579
aI1580
aI1581
aI1582
aI1583
aI1584
aI1585
aI1586
aI1587
aI1588
aI1589
aI1590
aI1591
aI1592
aI1593
aI1594
aI1595
aI1596
aI1597
aI1598
aI1599
aI1600
aI1601
aI1602
aI1603
aI1604
aI1605
aI1606
aI1607
aI1608
aI1609
aI1610
aI1611
aI1612
aI1613
aI1614
aI1615
aI1616
aI1617
aI1618
aI1619
aI1620
aI1621
aI1622
aI1623
aI1624
aI1625
aI1626
aI1627
aI1628
aI1629
aI1630
aI1631
aI1632
aI1633
aI1634
aI1635
aI1636
aI1637
aI1638
aI1639
aI1640
aI1641
aI1642
aI1643
aI1644
aI1645
aI1646
aI1647
aI1648
aI1649
aI1650
aI1651
aI1652
aI1653
aI1654
aI1655
aI1656
aI1657
aI1658
aI1659
aI1660
aI1661
aI1662
aI1663
aI1664
aI1665
aI1666
aI1667
aI1668
aI1669
aI1670
aI1671
aI1672
aI1673
aI1674
aI1675
aI1676
aI1677
aI1678
aI1679
aI1680
aI1681
aI1682
aI1683
aI1684
aI1685
aI1686
aI1687
aI1688
aI1689
aI1690
aI1691
aI1692
aI1693
aI1694
aI1695
aI1696
aI1697
aI1698
aI1699
aI1700
aI1701
aI1702
aI1703
aI1704
aI1705
aI1706
aI1707
aI1708
aI1709
aI1710
aI1711
aI1712
aI1713
aI1714
aI1715
aI1716
aI1717
aI1718
aI1719
aI1720
aI1721
aI1722
aI1723
aI1724
aI1725
aI1726
aI1727
aI1728
aI1729
aI1730
aI1731
aI1732
aI1733
aI1734
aI1735
aI1736
aI1737
aI1738
aI1739
aI1740
aI1741
aI1742
aI1743
aI1744
aI1745
aI1746
aI1747
aI1748
aI1749
aI1750
aI1751
aI1752
aI1753
aI1754
aI1755
aI1756
aI1757
aI1758
aI1759
aI1760
aI1761
aI1762
aI1763
aI1764
aI1765
aI1766
aI1767
aI1768
aI1769
aI1770
aI1771
aI1772
aI1773
aI1774
aI1775
aI1776
aI1777
aI1778
aI1779
aI1780
aI1781
aI1782
aI1783
aI1784
aI1785
aI1786
aI1787
aI1788
aI1789
aI1790
aI1791
aI1792
aI1793
aI1794
aI1795
aI1796
aI1797
aI1798
aI1799
aI1800
aI1801
aI1802
aI1803
aI1804
aI1805
aI1806
aI1807
aI1808
aI1809
aI1810
aI1811
aI1812
aI1813
aI1814
aI1815
aI1816
aI1817
aI1818
aI1819
aI1820
aI1821
aI1822
aI1823
aI1824
aI1825
aI1826
aI1827
aI1828
aI1829
aI1830
aI1831
aI1832
aI1833
aI1834
aI1835
aI1836
aI1837
aI1838
aI1839
aI1840
aI1841
aI1842
aI1843
aI1844
aI1845
aI1846
aI1847
aI1848
aI1849
aI1850
aI1851
aI1852
aI1853
aI1854
aI1855
aI1856
aI1857
aI1858
aI1859
aI1860
aI1861
aI1862
aI1863
aI1864
aI1865
aI1866
aI1867
aI1868
aI1869
aI1870
aI1871
aI1872
aI1873
aI1874
aI1875
aI1876
aI1877
aI1878
aI1879
aI1880
aI1881
aI1882
aI1883
aI1884
aI1885
aI1886
aI1887
aI1888
aI1889
aI1890
aI1891
aI1892
aI1893
aI1894
aI1895
aI1896
aI1897
aI1898
aI1899
aI1900
aI1901
aI1902
aI1903
aI1904
aI1905
aI1906
aI1907
aI1908
aI1909
aI1910
aI1911
aI1912
aI1913
aI1914
aI1915
aI1916
aI1917
aI1918
aI1919
aI1920
aI1921
aI1922
aI1923
aI1924
aI1925
aI1926
aI1927
aI1928
aI1929
aI1930
aI1931
aI1932
aI1933
aI1934
aI1935
aI1936
aI1937
aI1938
aI1939
aI1940
aI1941
aI1942
aI1943
aI1944
aI1945
aI1946
aI1947
aI1948
aI1949
aI1950
aI1951
aI1952
aI1953
aI1954
aI1955
aI1956
aI1957
aI1958
aI1959
aI1960
aI1961
aI1962
aI1963
aI1964
aI1965
aI1966
aI1967
aI1968
aI1969
aI1970
aI1971
aI1972
aI1973
aI1974
aI1975
aI1976
aI1977
aI1978
aI1979
aI1980
aI1981
aI1982
aI1983
aI1984
aI1985
aI1986
aI1987
aI1988
aI1989
aI1990
aI1991
aI1992
aI1993
aI1994
aI1995
aI1996
aI1997
aI1998
aI1999
aI2000
aI2001
aI2002
aI2003
aI2004
aI2005
aI2006
aI2007
aI2008
aI2009
aI2010
aI2011
aI2012
aI2013
aI2014
aI2015
aI2016
aI2017
aI2018
aI2019
aI2020
aI2021
aI2022
aI2023
aI2024
aI2025
aI2026
aI2027
aI2028
aI2029
aI2030
aI2031
aI2032
aI2033
aI2034
aI2035
aI2036
aI2037
aI2038
aI2039
aI2040
aI2041
aI2042
aI2043
aI2044
aI2045
aI2046
aI2047
aI2048
aI2049
aI2050
aI2051
aI2052
aI2053
aI2054
aI2055
aI2056
aI2057
aI2058
aI2059
aI2060
aI2061
aI2062
aI2063
aI2064
aI2065
aI2066
aI2067
aI2068
aI2069
aI2070
aI2071
aI9744
aI9745
aI9746
aI9747
aI9748
aI9749
aI9750
aI9751
aI9752
aI9753
aI9754
aI9755
aI9756
aI9757
aI9758
aI9759
aI9760
aI9761
aI9762
aI9763
aI9764
aI9765
aI9766
aI9767
aI9768
aI9769
aI9770
aI9771
aI9772
aI9773
aI9774
aI9775
aI9776
aI9777
aI9778
aI9779
aI9780
aI9781
aI9782
aI9783
aI9784
aI9785
aI9786
aI9787
aI9788
aI9789
aI9790
aI9791
aI9792
aI9793
aI9794
aI9795
aI9796
aI9797
aI9798
aI9799
aI9800
aI9801
aI9802
aI9803
aI9804
aI9805
aI9806
aI9807
aI9808
aI9809
aI9810
aI9811
aI9812
aI9813
aI9814
aI9815
aI9816
aI9817
aI9818
aI9819
aI9820
aI9821
aI9822
aI9823
aI9824
aI9825
aI9826
aI9827
aI9828
aI9829
aI9830
aI9831
aI9832
aI9833
aI9834
aI9835
aI9836
aI9837
aI9838
aI9839
aI9840
aI9841
aI9843
aI9844
aI9846
aI9847
aI9848
aI9849
aI9850
aI9851
aI9852
aI9853
aI9854
aI9855
aI9856
aI9857
aI9858
aI9859
aI9860
aI9861
aI9862
aI9863
aI9872
aI9873
aI9874
aI9875
aI9876
aI9877
aI9878
aI9879
aI9880
aI9881
aI9882
aI9883
aI9884
aI9885
aI9886
aI9887
aI9888
aI9889
aI9890
aI9891
aI9892
aI9893
aI9894
aI9895
aI9896
aI9897
aI9898
aI9899
aI9900
aI9901
aI9902
aI9903
aI9904
aI9905
aI9906
aI9907
aI9908
aI9909
aI9910
aI9911
aI9912
aI9913
aI9914
aI9915
aI9916
aI9917
aI9918
aI9919
aI9920
aI9921
aI9922
aI9923
aI9924
aI9925
aI9926
aI9927
aI9928
aI9929
aI9930
aI9931
aI9932
aI9933
aI9934
aI9935
aI9936
aI9937
aI9938
aI9939
aI9940
aI9941
aI9942
aI9943
aI9944
aI9945
aI9946
aI9947
aI9948
aI9949
aI9950
aI9951
aI9952
aI9953
aI9954
aI9955
aI9956
aI9957
aI9958
aI9959
aI9960
aI9961
aI9962
aI9963
aI9964
aI9965
aI9966
aI9967
aI9968
aI9969
aI9970
aI9971
aI9972
aI9973
aI9974
aI9975
aI9976
aI9977
aI9978
aI9979
aI9980
aI9981
aI9982
aI9983
aI9984
aI9985
aI9986
aI9987
aI9988
aI9989
aI9990
aI9991
aI9992
aI9993
aI9994
aI9995
aI9996
aI9997
aI9998
aI9999
aI10000
aI10001
aI10002
aI10003
aI10004
aI10005
aI10006
aI10007
aI10008
aI10009
aI10010
aI10011
aI10012
aI10013
aI10014
aI10015
aI10016
aI10017
aI10018
aI10019
aI10020
aI10021
aI10022
aI10023
aI10024
aI10025
aI10026
aI10027
aI10028
aI10029
aI10030
aI10031
aI10032
aI10033
aI10034
aI10035
aI10036
aI10037
aI10038
aI10039
aI10040
aI10041
aI10042
aI10043
aI10044
aI10045
aI10046
aI10047
aI10048
aI10049
aI10050
aI10051
aI10052
aI10053
aI10054
aI10055
aI10056
aI10057
aI10058
aI10059
aI10060
aI10061
aI10062
aI10063
aI10064
aI10065
aI10066
aI10067
aI10068
aI10069
aI10070
aI10071
aI10072
aI10073
aI10074
aI10075
aI10076
aI10077
aI10078
aI10079
aI10080
aI10081
aI10082
aI10083
aI10084
aI10085
aI10086
aI10087
aI10088
aI10089
aI10090
aI10091
aI10092
aI10093
aI10094
aI10095
aI10096
aI10097
aI10098
aI10099
aI10100
aI10101
aI10102
aI10103
aI10104
aI10105
aI10106
aI10107
aI10108
aI10109
aI10110
aI10111
aI10112
aI10113
aI10114
aI10115
aI10116
aI10117
aI10118
aI10119
aI10120
aI10121
aI10122
aI10123
aI10124
aI10125
aI10126
aI10127
aI10128
aI10129
aI10130
aI10131
aI10132
aI10133
aI10134
aI10135
aI10136
aI10137
aI10138
aI10139
aI10140
aI10141
aI10142
aI10143
aI10144
aI10145
aI10146
aI10147
aI10148
aI10149
aI10150
aI10151
aI10152
aI10153
aI10154
aI10155
aI10156
aI10157
aI10158
aI10159
aI10160
aI10161
aI10162
aI10163
aI10164
aI10165
aI10166
aI10167
aI10168
aI10169
aI10170
aI10171
aI10172
aI10173
aI10174
aI10175
aI10176
aI10177
aI10178
aI10179
aI10180
aI10181
aI10182
aI10183
aI10184
aI10185
aI10186
aI10187
aI10188
aI10189
aI10190
aI10191
aI10192
aI10193
aI10194
aI10195
aI10196
aI10197
aI10198
aI10199
aI10200
aI10201
aI10202
aI10203
aI10204
aI10205
aI10206
aI10207
aI10208
aI10209
aI10210
aI10211
aI10212
aI10213
aI10214
aI10215
aI10216
aI10217
aI10218
aI10219
aI10220
aI10221
aI10222
aI10223
aI10224
aI10225
aI10226
aI10227
aI10228
aI10229
aI10230
aI10231
aI10232
aI10233
aI10234
aI10235
aI10236
aI10237
aI10238
aI10239
aI10240
aI10241
aI10242
aI10243
aI10244
aI10245
aI10246
aI10247
aI10248
aI10249
aI10250
aI10251
aI10252
aI10253
aI10254
aI10255
aI10256
aI10257
aI10258
aI10259
aI10260
aI10261
aI10262
aI10263
aI10264
aI10265
aI10266
aI10267
aI10268
aI10269
aI10270
aI10271
aI10272
aI10273
aI10274
aI10275
aI10276
aI10277
aI10278
aI10279
aI10280
aI10281
aI10282
aI10283
aI10284
aI10285
aI10286
aI10287
aI10288
aI10289
aI10290
aI10291
aI10292
aI10293
aI10294
aI10295
aI10296
aI10297
aI10298
aI10299
aI10300
aI10301
aI10302
aI10303
aI10304
aI10305
aI10306
aI10307
aI10308
aI10309
aI10310
aI10311
aI10312
aI10313
aI10314
aI10315
aI10316
aI10317
aI10318
aI10319
aI10320
aI10321
aI10322
aI10323
aI10324
aI10325
aI10326
aI10327
aI10328
aI10329
aI10330
aI10331
aI10332
aI10333
aI10334
aI10335
aI10336
aI10337
aI10338
aI10339
aI10340
aI10341
aI10342
aI10343
aI10344
aI10345
aI10346
aI10347
aI10348
aI10349
aI10350
aI10351
aI10352
aI10353
aI10354
aI10355
aI10356
aI10357
aI10358
aI10359
aI10360
aI10361
aI10362
aI10363
aI10364
aI10365
aI10366
aI10367
aI10368
aI10369
aI10370
aI10371
aI10372
aI10373
aI10374
aI10375
aI10376
aI10377
aI10378
aI10379
aI10380
aI10381
aI10382
aI10383
aI10384
aI10385
aI10386
aI10387
aI10388
aI10389
aI10390
aI10391
aI10392
aI10393
aI10394
aI10395
aI10396
aI10397
aI10398
aI10399
aI10400
aI10401
aI10402
aI10403
aI10404
aI10405
aI10406
aI10407
aI10408
aI10409
aI10410
aI10411
aI10412
aI10413
aI10414
aI10415
aI10416
aI10417
aI10418
aI10419
aI10420
aI10421
aI10422
aI10423
aI10424
aI10425
aI10426
aI10427
aI10428
aI10429
aI10430
aI10431
aI10432
aI10433
aI10434
aI10435
aI10436
aI10437
aI10438
aI10439
aI10440
aI10441
aI10442
aI10443
aI10444
aI10445
aI10446
aI10447
aI10448
aI10449
aI10450
aI10451
aI10452
aI10453
aI10454
aI10455
aI10456
aI10457
aI10458
aI10459
aI10460
aI10461
aI10462
aI10463
aI10464
aI10465
aI10466
aI10467
aI10468
aI10469
aI10470
aI10471
aI10472
aI10473
aI10474
aI10475
aI10476
aI10477
aI10478
aI10479
aI10480
aI10481
aI10482
aI10483
aI10484
aI10485
aI10486
aI10487
aI10488
aI10489
aI10490
aI10491
aI10492
aI10493
aI10494
aI10495
aI10496
aI10497
aI10498
aI10499
aI10500
aI10501
aI10502
aI10503
aI10504
aI10505
aI10506
aI10507
aI10508
aI10509
aI10510
aI10511
aI10512
aI10513
aI10514
aI10515
aI10516
aI10517
aI10518
aI10519
aI10520
aI10521
aI10522
aI10523
aI10524
aI10525
aI10526
aI10527
aI10528
aI10529
aI10530
aI10531
aI10532
aI10533
aI10534
aI10535
aI10536
aI10537
aI10538
aI10539
aI10540
aI10541
aI10542
aI10543
aI10544
aI10545
aI10546
aI10547
aI10548
aI10549
aI10550
aI10551
aI10552
aI10553
aI10554
aI10555
aI10556
aI10557
aI10558
aI10559
aI10560
aI10561
aI10562
aI10563
aI10564
aI10565
aI10566
aI10567
aI10568
aI10569
aI10570
aI10571
aI10572
aI10573
aI10574
aI10575
aI10576
aI10577
aI10578
aI10579
aI10580
aI10581
aI10582
aI10583
aI10584
aI10585
aI10586
aI10587
aI10588
aI10589
aI10590
aI10591
aI10592
aI10593
aI10594
aI10595
aI10596
aI10597
aI10598
aI10599
aI10600
aI10601
aI10602
aI10603
aI10604
aI10605
aI10606
aI10607
aI10608
aI10609
aI10610
aI10611
aI10612
aI10613
aI10614
aI10615
aI10616
aI10617
aI10618
aI10619
aI10620
aI10621
aI10622
aI10623
aI10624
aI10625
aI10626
aI10627
aI10628
aI10629
aI10630
aI10631
aI10632
aI10633
aI10634
aI10635
aI10636
aI10637
aI10638
aI10639
aI10640
aI10641
aI10642
aI10643
aI10644
aI10645
aI10646
aI10647
aI10648
aI10649
aI10650
aI10651
aI10652
aI10653
aI10654
aI10655
aI10656
aI10657
aI10658
aI10659
aI10660
aI10661
aI10662
aI10663
aI10664
aI10665
aI10666
aI10667
aI10668
aI10669
aI10670
aI10671
aI10672
aI10673
aI10674
aI10675
aI10676
aI10677
aI10678
aI10679
aI10680
aI10681
aI10682
aI10683
aI10684
aI10685
aI10686
aI10687
aI10688
aI10689
aI10690
aI10691
aI10692
aI10693
aI10694
aI10695
aI10696
aI10697
aI10698
aI10699
aI10700
aI10701
aI10702
aI10703
aI10704
aI10705
aI10706
aI10707
aI10708
aI10709
aI10710
aI10711
aI10712
aI10713
aI10714
aI10715
aI10716
aI10717
aI10718
aI10719
aI10720
aI10721
aI10722
aI10723
aI10724
aI10725
aI10726
aI10727
aI10728
aI10729
aI10730
aI10731
aI10732
aI10733
aI10734
aI10735
aI10736
aI10737
aI10738
aI10739
aI10740
aI10741
aI10742
aI10743
aI10744
aI10745
aI10746
aI10747
aI10748
aI10749
aI10750
aI10751
aI10752
aI10753
aI10754
aI10755
aI10756
aI10757
aI10758
aI10759
aI10760
aI10761
aI10762
aI10763
aI10764
aI10765
aI10766
aI10767
aI10768
aI10769
aI10770
aI10771
aI10772
aI10773
aI10774
aI10775
aI10776
aI10777
aI10778
aI10779
aI10780
aI10781
aI10782
aI10783
aI10784
aI10785
aI10786
aI10787
aI10788
aI10789
aI10790
aI10791
aI10792
aI10793
aI10794
aI10795
aI10796
aI10797
aI10798
aI10799
aI10800
aI10801
aI10802
aI10803
aI10804
aI10805
aI10806
aI10807
aI10808
aI10809
aI10810
aI10811
aI10812
aI10813
aI10814
aI10815
aI10816
aI10817
aI10818
aI10819
aI10820
aI10821
aI10822
aI10823
aI10824
aI10825
aI10826
aI10827
aI10828
aI10829
aI10830
aI10831
aI10832
aI10833
aI10834
aI10835
aI10836
aI10837
aI10838
aI10839
aI10840
aI10841
aI10842
aI10843
aI10844
aI10845
aI10846
aI10847
aI10848
aI10849
aI10850
aI10851
aI10852
aI10853
aI10854
aI10855
aI10856
aI10857
aI10858
aI10859
aI10860
aI10861
aI10862
aI10863
aI10864
aI10865
aI10866
aI10867
aI10868
aI10869
aI10870
aI10871
aI10872
aI10873
aI10874
aI10875
aI10876
aI10877
aI10878
aI10879
aI10880
aI10881
aI10882
aI10883
aI10884
aI10885
aI10886
aI10887
aI10888
aI10889
aI10890
aI10891
aI10892
aI10893
aI10894
aI10895
aI10896
aI10897
aI10898
aI10899
aI10900
aI10901
aI10902
aI10903
aI10904
aI10905
aI10906
aI10907
aI10908
aI10909
aI10910
aI10911
aI10912
aI10913
aI10914
aI10915
aI10916
aI10917
aI10918
aI10919
aI10920
aI10921
aI10922
aI10923
aI10924
aI10925
aI10926
aI10927
aI10928
aI10929
aI10930
aI10931
aI10932
aI10933
aI10934
aI10935
aI10936
aI10937
aI10938
aI10939
aI10940
aI10941
aI10942
aI10943
aI10944
aI10945
aI10946
aI10947
aI10948
aI10949
aI10950
aI10951
aI10952
aI10953
aI10954
aI10955
aI10956
aI10957
aI10958
aI10959
aI10960
aI10961
aI10962
aI10963
aI10964
aI10965
aI10966
aI10967
aI10968
aI10969
aI10970
aI10971
aI10972
aI10973
aI10974
aI10975
aI10976
aI10977
aI10978
aI10979
aI10980
aI10981
aI10982
aI10983
aI10984
aI10985
aI10986
aI10987
aI10988
aI10989
aI10990
aI10991
aI10992
aI10993
aI10994
aI10995
aI10996
aI10997
aI10998
aI10999
aI11000
aI11001
aI11002
aI11003
aI11004
aI11005
aI11006
aI11007
aI11008
aI11009
aI11010
aI11011
aI11012
aI11013
aI11014
aI11015
aI11016
aI11017
aI11018
aI11019
aI11020
aI11021
aI11022
aI11023
aI11024
aI11025
aI11026
aI11027
aI11028
aI11029
aI11030
aI11031
aI11032
aI11033
aI11034
aI11035
aI11036
aI11037
aI11038
aI11039
aI11040
aI11041
aI11042
aI11043
aI11044
aI11045
aI11046
aI11047
aI11048
aI11049
aI11050
aI11051
aI11052
aI11053
aI11054
aI11055
aI11056
aI11057
aI11058
aI11059
aI11060
aI11061
aI11062
aI11063
aI11064
aI11065
aI11066
aI11067
aI11068
aI11069
aI11070
aI11071
aI11072
aI11073
aI11074
aI11075
aI11076
aI11077
aI11078
aI11079
aI11080
aI11081
aI11082
aI11083
aI11084
aI11085
aI11086
aI11087
aI11088
aI11089
aI11090
aI11091
aI11092
aI11093
aI11094
aI11095
aI11096
aI11097
aI11098
aI11099
aI11100
aI11101
aI11102
aI11103
aI11104
aI11105
aI11106
aI11107
aI11108
aI11109
aI11110
aI11111
aI11112
aI11113
aI11114
aI11115
aI11116
aI11117
aI11118
aI11119
aI11120
aI11121
aI11122
aI11123
aI11124
aI11125
aI11126
aI11127
aI11128
aI11129
aI11130
aI11131
aI11132
aI11133
aI11134
aI11135
aI11136
aI11137
aI11138
aI11139
aI11140
aI11141
aI11142
aI11143
aI11144
aI11145
aI11146
aI11147
aI11148
aI11149
aI11150
aI11151
aI11152
aI11153
aI11154
aI11155
aI11156
aI11157
aI11158
aI11159
aI11160
aI11161
aI11162
aI11163
aI11164
aI11165
aI11166
aI11167
aI11168
aI11169
aI11170
aI11171
aI11172
aI11173
aI11174
aI11175
aI11176
aI11177
aI11178
aI11179
aI11180
aI11181
aI11182
aI11183
aI11184
aI11185
aI11186
aI11187
aI11188
aI11189
aI11190
aI11191
aI11192
aI11193
aI11194
aI11195
aI11196
aI11197
aI11198
aI11199
aI11200
aI11201
aI11202
aI11203
aI11204
aI11205
aI11206
aI11207
aI11208
aI11209
aI11210
aI11211
aI11212
aI11213
aI11214
aI11215
aI11216
aI11217
aI11218
aI11219
aI11220
aI11221
aI11222
aI11223
aI11224
aI11225
aI11226
aI11227
aI11228
aI11229
aI11230
aI11231
aI11232
aI11233
aI11234
aI11235
aI11236
aI11237
aI11238
aI11239
aI11240
aI11241
aI11242
aI11243
aI11244
aI11245
aI11246
aI11247
aI11248
aI11249
aI11250
aI11251
aI11252
aI11253
aI11254
aI11255
aI11256
aI11257
aI11258
aI11259
aI11260
aI11261
aI11262
aI11263
aI11264
aI11265
aI11266
aI11267
aI11268
aI11269
aI11270
aI11271
aI11272
aI11273
aI11274
aI11275
aI11276
aI11277
aI11278
aI11279
aI11280
aI11281
aI11282
aI11283
aI11284
aI11285
aI11286
aI11287
aI11288
aI11289
aI11290
aI11291
aI11292
aI11293
aI11294
aI11295
aI11296
aI11297
aI11298
aI11299
aI11300
aI11301
aI11302
aI11303
aI11304
aI11305
aI11306
aI11307
aI11308
aI11309
aI11310
aI11311
aI11312
aI11313
aI11314
aI11315
aI11316
aI11317
aI11318
aI11319
aI11320
aI11321
aI11322
aI11323
aI11324
aI11325
aI11326
aI11327
aI11328
aI11329
aI11330
aI11331
aI11332
aI11333
aI11334
aI11335
aI11336
aI11337
aI11338
aI11339
aI11340
aI11341
aI11342
aI11343
aI11344
aI11345
aI11346
aI11347
aI11348
aI11349
aI11350
aI11351
aI11352
aI11353
aI11354
aI11355
aI11356
aI11357
aI11358
aI11359
aI11360
aI11361
aI11362
aI11363
aI11364
aI11365
aI11366
aI11367
aI11368
aI11369
aI11370
aI11371
aI11372
aI11373
aI11374
aI11375
aI11376
aI11377
aI11378
aI11379
aI11380
aI11381
aI11382
aI11383
aI11384
aI11385
aI11386
aI11387
aI11388
aI11389
aI11390
aI11391
aI11392
aI11393
aI11394
aI11395
aI11396
aI11397
aI11398
aI11399
aI11400
aI11401
aI11402
aI11403
aI11404
aI11405
aI11406
aI11407
aI11408
aI11409
aI11410
aI11411
aI11412
aI11413
aI11414
aI11415
aI11416
aI11417
aI11418
aI11419
aI11420
aI11421
aI11422
aI11423
aI11424
aI11425
aI11426
aI11427
aI11428
aI11429
aI11430
aI11431
aI11432
aI11433
aI11434
aI11435
aI11436
aI11437
aI11438
aI11439
aI11440
aI11441
aI11442
aI11443
aI11444
aI11445
aI11446
aI11447
aI11448
aI11449
aI11450
aI11451
aI11452
aI11453
aI11454
aI11455
aI11456
aI11457
aI11458
aI11459
aI11460
aI11461
aI11462
aI11463
aI11464
aI11465
aI11466
aI11467
aI11468
aI11469
aI11470
aI11471
aI11472
aI11473
aI11474
aI11475
aI11476
aI11477
aI11478
aI11479
aI11480
aI11481
aI11482
aI11483
aI11484
aI11485
aI11486
aI11487
aI11488
aI11489
aI11490
aI11491
aI11492
aI11493
aI11494
aI11495
aI11496
aI11497
aI11498
aI11499
aI11500
aI11501
aI11502
aI11503
aI11504
aI11505
aI11506
aI11507
aI11508
aI11509
aI11510
aI11511
aI11512
aI11513
aI11514
aI11515
aI11516
aI11517
aI11518
aI11519
aI11520
aI11521
aI11522
aI11523
aI11524
aI11525
aI11526
aI11527
aI11528
aI11529
aI11530
aI11531
aI11532
aI11533
aI11534
aI11535
aI11536
aI11537
aI11538
aI11539
aI11540
aI11541
aI11542
aI11543
aI11544
aI11545
aI11546
aI11547
aI11548
aI11549
aI11550
aI11551
aI11552
aI11553
aI11554
aI11555
aI11556
aI11557
aI11558
aI11559
aI11560
aI11561
aI11562
aI11563
aI11564
aI11565
aI11566
aI11567
aI11568
aI11569
aI11570
aI11571
aI11572
aI11573
aI11574
aI11575
aI11576
aI11577
aI11578
aI11579
aI11580
aI11581
aI11582
aI11583
aI11584
aI11585
aI11586
aI11587
aI11588
aI11589
aI11590
aI11591
aI11592
aI11593
aI11594
aI11595
aI11596
aI11597
aI11598
aI11599
aI11600
aI11601
aI11602
aI11603
aI11604
aI11605
aI11606
aI11607
aI11608
aI11609
aI11610
aI11611
aI11612
aI11613
aI11614
aI11615
aI11616
aI11617
aI11618
aI11619
aI11620
aI11621
aI11622
aI11623
aI11624
aI11625
aI11626
aI11627
aI11628
aI11629
aI11630
aI11631
aI11632
aI11633
aI11634
aI11635
aI11636
aI11637
aI11638
aI11639
aI11640
aI11641
aI11642
aI11643
aI11644
aI11645
aI11646
aI11647
aI11648
aI11649
aI11650
aI11651
aI11652
aI11653
aI11654
aI11655
aI11656
aI11657
aI11658
aI11659
aI11660
aI11661
aI11662
aI11663
aI11664
aI11665
aI11666
aI11667
aI11668
aI11669
aI11670
aI11671
aI11672
aI11673
aI11674
aI11675
aI11676
aI11677
aI11678
aI11679
aI11680
aI11681
aI11682
aI11683
aI11684
aI11685
aI11686
aI11687
aI11688
aI11689
aI11690
aI11691
aI11692
aI11693
aI11694
aI11695
aI11696
aI11697
aI11698
aI11699
aI11700
aI11701
aI11702
aI11703
aI11704
aI11705
aI11706
aI11707
aI11708
aI11709
aI11710
aI11711
aI11712
aI11713
aI11714
aI11715
aI11716
aI11717
aI11718
aI11719
aI11720
aI11721
aI11722
aI11723
aI11724
aI11725
aI11726
aI11727
aI11728
aI11729
aI11730
aI11731
aI11732
aI11733
aI11734
aI11735
aI11736
aI11737
aI11738
aI11739
aI11740
aI11741
aI11742
aI11743
aI11744
aI11745
aI11746
aI11747
aI11748
aI11749
aI11750
aI11751
aI11752
aI11753
aI11754
aI11755
aI11756
aI11757
aI11758
aI11759
aI11760
aI11761
aI11762
aI11763
aI11764
aI11765
aI11766
aI11767
aI11768
aI11769
aI11770
aI11771
aI11772
aI11773
aI11774
aI11775
aI11776
aI11777
aI11778
aI11779
aI11780
aI11781
aI11782
aI11783
aI11784
aI11785
aI11786
aI11787
aI11788
aI11789
aI11790
aI11791
aI11792
aI11793
aI11794
aI11795
aI11796
aI11797
aI11798
aI11799
aI11800
aI11801
aI11802
aI11803
aI11804
aI11805
aI11806
aI11807
aI11808
aI11809
aI11810
aI11811
aI11812
aI11813
aI11814
aI11815
aI11816
aI11817
aI11818
aI11819
aI11820
aI11821
aI11822
aI11823
aI11824
aI11825
aI11826
aI11827
aI11828
aI11829
aI11830
aI11831
aI11832
aI11833
aI11834
aI11835
aI11836
aI11837
aI11838
aI11839
aI11840
aI11841
aI11842
aI11843
aI11844
aI11845
aI11846
aI11847
aI11848
aI11849
aI11850
aI11851
aI11852
aI11853
aI11854
aI11855
aI11856
aI11857
aI11858
aI11859
aI11860
aI11861
aI11862
aI11863
aI11864
aI11865
aI11866
aI11867
aI11868
aI11869
aI11870
aI11871
aI11872
aI11873
aI11874
aI11875
aI11876
aI11877
aI11878
aI11879
aI11880
aI11881
aI11882
aI11883
aI11884
aI11885
aI11886
aI11887
aI11888
aI11889
aI11890
aI11891
aI11892
aI11893
aI11894
aI11895
aI11896
aI11897
aI11898
aI11899
aI11900
aI11901
aI11902
aI11903
aI11904
aI11905
aI11906
aI11907
aI11908
aI11909
aI11910
aI11911
aI11912
aI11913
aI11914
aI11915
aI11916
aI11917
aI11918
aI11919
aI11920
aI11921
aI11922
aI11923
aI11924
aI11925
aI11926
aI11927
aI11928
aI11929
aI11930
aI11931
aI11932
aI11933
aI11934
aI11935
aI11936
aI11937
aI11938
aI11939
aI11940
aI11941
aI11942
aI11943
aI11944
aI11945
aI11946
aI11947
aI11948
aI11949
aI11950
aI11951
aI11952
aI11953
aI11954
aI11955
aI11956
aI11957
aI11958
aI11959
aI11960
aI11961
aI11962
aI11963
aI11964
aI11965
aI11966
aI11967
aI11968
aI11969
aI11970
aI11971
aI11972
aI11973
aI11974
aI11975
aI11976
aI11977
aI11978
aI11979
aI11980
aI11981
aI11982
aI11983
aI11984
aI11985
aI11986
aI11987
aI11988
aI11989
aI11990
aI11991
aI11992
aI11993
aI11994
aI11995
aI11996
aI11997
aI11998
aI11999
aI12000
aI12001
aI12002
aI12003
aI12004
aI12005
aI12006
aI12007
aI12008
aI12009
aI12010
aI12011
aI12012
aI12013
aI12014
aI12015
aI12016
aI12017
aI12018
aI12019
aI12020
aI12021
aI12022
aI12023
aI12024
aI12025
aI12026
aI12027
aI12028
aI12029
aI12030
aI12031
aI12032
aI12033
aI12034
aI12035
aI12036
aI12037
aI12038
aI12039
aI12040
aI12041
aI12042
aI12043
aI12044
aI12045
aI12046
aI12047
aI12048
aI12049
aI12050
aI12051
aI12052
aI12053
aI12054
aI12055
aI12056
aI12057
aI12058
aI12059
aI12060
aI12061
aI12062
aI12063
aI12064
aI12065
aI12066
aI12067
aI12068
aI12069
aI12070
aI12071
aI12072
aI12073
aI12074
aI12075
aI12076
aI12077
aI12078
aI12079
aI12080
aI12081
aI12082
aI12083
aI12084
aI12085
aI12086
aI12087
aI12088
aI12089
aI12090
aI12091
aI12092
aI12093
aI12094
aI12095
aI12096
aI12097
aI12098
aI12099
aI12100
aI12101
aI12102
aI12103
aI12104
aI12105
aI12106
aI12107
aI12108
aI12109
aI12110
aI12111
aI12112
aI12113
aI12114
aI12115
aI12116
aI12117
aI12118
aI12119
aI12120
aI12121
aI12122
aI12123
aI12124
aI12125
aI12126
aI12127
aI12128
aI12129
aI12130
aI12131
aI12132
aI12133
aI12134
aI12135
aI12136
aI12137
aI12138
aI12139
aI12140
aI12141
aI12142
aI12143
aI12144
aI12145
aI12146
aI12147
aI12148
aI12149
aI12150
aI12151
aI12152
aI12153
aI12154
aI12155
aI12156
aI12157
aI12158
aI12159
aI12160
aI12161
aI12162
aI12163
aI12164
aI12165
aI12166
aI12167
aI12168
aI12169
aI12170
aI12171
aI12172
aI12173
aI12174
aI12175
aI12176
aI12177
aI12178
aI12179
aI12180
aI12181
aI12182
aI12183
aI12184
aI12185
aI12186
aI12187
aI12188
aI12189
aI12190
aI12191
aI12192
aI12193
aI12194
aI12195
aI12196
aI12197
aI12198
aI12199
aI12200
aI12201
aI12202
aI12203
aI12204
aI12205
aI12206
aI12207
aI12208
aI12209
aI12210
aI12211
aI12212
aI12213
aI12214
aI12215
aI12216
aI12217
aI12218
aI12219
aI12220
aI12221
aI12222
aI12223
aI12224
aI12225
aI12226
aI12227
aI12228
aI12229
aI12230
aI12231
aI12232
aI12233
aI12234
aI12235
aI12236
aI12237
aI12238
aI12239
aI12240
aI12241
aI12242
aI12243
aI12244
aI12245
aI12246
aI12247
aI12248
aI12249
aI12250
aI12251
aI12252
aI12253
aI12254
aI12255
aI12256
aI12257
aI12258
aI12259
aI12260
aI12261
aI12262
aI12263
aI12264
aI12265
aI12266
aI12267
aI12268
aI12269
aI12270
aI12271
aI12272
aI12273
aI12274
aI12275
aI12276
aI12277
aI12278
aI12279
aI12280
aI12281
aI12282
aI12283
aI12284
aI12285
aI12286
aI12287
aI12288
aI12289
aI12290
aI12291
aI12292
aI12293
aI12294
aI12295
aI12296
aI12297
aI12298
aI12299
aI12300
aI12301
aI12302
aI12303
aI12304
aI12305
aI12306
aI12307
aI12308
aI12309
aI12310
aI12311
aI12312
aI12313
aI12314
aI12315
aI12316
aI12317
aI12318
aI12319
aI12320
aI12321
aI12322
aI12323
aI12324
aI12325
aI12326
aI12327
aI12328
aI12329
aI12330
aI12331
aI12332
aI12333
aI12334
aI12335
aI12336
aI12337
aI12338
aI12339
aI12340
aI12341
aI12342
aI12343
aI12344
aI12345
aI12346
aI12347
aI12348
aI12349
aI12350
aI12351
aI12352
aI12353
aI12354
aI12355
aI12356
aI12357
aI12358
aI12359
aI12360
aI12361
aI12362
aI12363
aI12364
aI12365
aI12366
aI12367
aI12368
aI12369
aI12370
aI12371
aI12372
aI12373
aI12374
aI12375
aI12376
aI12377
aI12378
aI12379
aI12380
aI12381
aI12382
aI12383
aI12384
aI12385
aI12386
aI12387
aI12388
aI12389
aI12390
aI12391
aI12392
aI12393
aI12394
aI12395
aI12396
aI12397
aI12398
aI12399
aI12400
aI12401
aI12402
aI12403
aI12404
aI12405
aI12406
aI12407
aI12408
aI12409
aI12410
aI12411
aI12412
aI12413
aI12414
aI12415
aI12416
aI12417
aI12418
aI12419
aI12420
aI12421
aI12422
aI12423
aI12424
aI12425
aI12426
aI12427
aI12428
aI12429
aI12430
aI12431
aI12432
aI12433
aI12434
aI12435
aI12436
aI12437
aI12438
aI12439
aI12440
aI12441
aI12442
aI12443
aI12444
aI12445
aI12446
aI12447
aI12448
aI12449
aI12450
aI12451
aI12452
aI12453
aI12454
aI12455
aI12456
aI12457
aI12458
aI12459
aI12460
aI12461
aI12462
aI12463
aI12464
aI12465
aI12466
aI12467
aI12468
aI12469
aI12470
aI12471
aI12472
aI12473
aI12474
aI12475
aI12476
aI12477
aI12478
aI12479
aI12480
aI12481
aI12482
aI12483
aI12484
aI12485
aI12486
aI12487
aI12488
aI12489
aI12490
aI12491
aI12492
aI12493
aI12494
aI12495
aI12496
aI12497
aI12498
aI12499
aI12500
aI12501
aI12502
aI12503
aI12504
aI12505
aI12506
aI12507
aI12508
aI12509
aI12510
aI12511
aI12512
aI12513
aI12514
aI12515
aI12516
aI12517
aI12518
aI12519
aI12520
aI12521
aI12522
aI12523
aI12524
aI12525
aI12526
aI12527
aI12528
aI12529
aI12530
aI12531
aI12532
aI12533
aI12534
aI12535
aI12536
aI12537
aI12538
aI12539
aI12540
aI12541
aI12542
aI12543
aI12544
aI12545
aI12546
aI12547
aI12548
aI12549
aI12550
aI12551
aI12552
aI12553
aI12554
aI12555
aI12556
aI12557
aI12558
aI12559
aI12560
aI12561
aI12562
aI12563
aI12564
aI12565
aI12566
aI12567
aI12568
aI12569
aI12570
aI12571
aI12572
aI12573
aI12574
aI12575
aI12576
aI12577
aI12578
aI12579
aI12580
aI12581
aI12582
aI12583
aI12584
aI12585
aI12586
aI12587
aI12588
aI12589
aI12590
aI12591
aI12592
aI12593
aI12594
aI12595
aI12596
aI12597
aI12598
aI12599
aI12600
aI12601
aI12602
aI12603
aI12604
aI12605
aI12606
aI12607
aI12608
aI12609
aI12610
aI12611
aI12612
aI12613
aI12614
aI12615
aI12616
aI12617
aI12618
aI12619
aI12620
aI12621
aI12622
aI12623
aI12624
aI12625
aI12626
aI12627
aI12628
aI12629
aI12630
aI12631
aI12632
aI12633
aI12634
aI12635
aI12636
aI12637
aI12638
aI12639
aI12640
aI12641
aI12642
aI12643
aI12644
aI12645
aI12646
aI12647
aI12648
aI12649
aI12650
aI12651
aI12652
aI12653
aI12654
aI12655
aI12656
aI12657
aI12658
aI12659
aI12660
aI12661
aI12662
aI12663
aI12664
aI12665
aI12666
aI12667
aI12668
aI12669
aI12670
aI12671
aI12672
aI12673
aI12674
aI12675
aI12676
aI12677
aI12678
aI12679
aI12680
aI12681
aI12682
aI12683
aI12684
aI12685
aI12686
aI12687
aI12688
aI12689
aI12690
aI12691
aI12692
aI12693
aI12694
aI12695
aI12696
aI12697
aI12698
aI12699
aI12700
aI12701
aI12702
aI12703
aI12704
aI12705
aI12706
aI12707
aI12708
aI12709
aI12710
aI12711
aI12712
aI12713
aI12714
aI12715
aI12716
aI12717
aI12718
aI12719
aI12720
aI12721
aI12722
aI12723
aI12724
aI12725
aI12726
aI12727
aI12728
aI12729
aI12730
aI12731
aI12732
aI12733
aI12734
aI12735
aI12736
aI12737
aI12738
aI12739
aI12740
aI12741
aI12742
aI12743
aI12744
aI12745
aI12746
aI12747
aI12748
aI12749
aI12750
aI12751
aI12752
aI12753
aI12754
aI12755
aI12756
aI12757
aI12758
aI12759
aI12760
aI12761
aI12762
aI12763
aI12764
aI12765
aI12766
aI12767
aI12768
aI12769
aI12770
aI12771
aI12772
aI12773
aI12774
aI12775
aI12776
aI12777
aI12778
aI12779
aI12780
aI12781
aI12782
aI12783
aI12784
aI12785
aI12786
aI12787
aI12788
aI12789
aI12790
aI12791
aI12792
aI12793
aI12794
aI12795
aI12796
aI12797
aI12798
aI12799
aI12800
aI12801
aI12802
aI12803
aI12804
aI12805
aI12806
aI12807
aI12808
aI12809
aI12810
aI12811
aI12812
aI12813
aI12814
aI12815
aI12816
aI12817
aI12818
aI12819
aI12820
aI12821
aI12822
aI12823
aI12824
aI12825
aI12826
aI12827
aI12828
aI12829
aI12830
aI12831
aI12832
aI12833
aI12834
aI12835
aI12836
aI12837
aI12838
aI12839
aI12840
aI12841
aI12842
aI12843
aI12844
aI12845
aI12846
aI12847
aI12848
aI12849
aI12850
aI12851
aI12852
aI12853
aI12854
aI12855
aI12856
aI12857
aI12858
aI12859
aI12860
aI12861
aI12862
aI12863
aI12864
aI12865
aI12866
aI12867
aI12868
aI12869
aI12870
aI12871
aI12872
aI12873
aI12874
aI12875
aI12876
aI12877
aI12878
aI12879
aI12880
aI12881
aI12882
aI12883
aI12884
aI12885
aI12886
aI12887
aI12888
aI12889
aI12890
aI12891
aI12892
aI12893
aI12894
aI12895
aI12896
aI12897
aI12898
aI12899
aI12900
aI12901
aI12902
aI12903
aI12904
aI12905
aI12906
aI12907
aI12908
aI12909
aI12910
aI12911
aI12912
aI12913
aI12914
aI12915
aI12916
aI12917
aI12918
aI12919
aI12920
aI12921
aI12922
aI12923
aI12924
aI12925
aI12926
aI12927
aI12928
aI12929
aI12930
aI12931
aI12932
aI12933
aI12934
aI12935
aI12936
aI12937
aI12938
aI12939
aI12940
aI12941
aI12942
aI12943
aI12944
aI12945
aI12946
aI12947
aI12948
aI12949
aI12950
aI12951
aI12952
aI12953
aI12954
aI12955
aI12956
aI12957
aI12958
aI12959
aI12960
aI12961
aI12962
aI12963
aI12964
aI12965
aI12966
aI12967
aI12968
aI12969
aI12970
aI12971
aI12972
aI12973
aI12974
aI12975
aI12976
aI12977
aI12978
aI12979
aI12980
aI12981
aI12982
aI12983
aI12984
aI12985
aI12986
aI12987
aI12988
aI12989
aI12990
aI12991
aI12992
aI12993
aI12994
aI12995
aI12996
aI12997
aI12998
aI12999
aI13000
aI13001
aI13002
aI13003
aI13004
aI13005
aI13006
aI13007
aI13008
aI13009
aI13010
aI13011
aI13012
aI13013
aI13014
aI13015
aI13016
aI13017
aI13018
aI13019
aI13020
aI13021
aI13022
aI13023
aI13024
aI13025
aI13026
aI13027
aI13028
aI13029
aI13030
aI13031
aI13032
aI13033
aI13034
aI13035
aI13036
aI13037
aI13038
aI13039
aI13040
aI13041
aI13042
aI13043
aI13044
aI13045
aI13046
aI13047
aI13048
aI13049
aI13050
aI13051
aI13052
aI13053
aI13054
aI13055
aI13056
aI13057
aI13058
aI13059
aI13060
aI13061
aI13062
aI13063
aI13064
aI13065
aI13066
aI13067
aI13068
aI13069
aI13070
aI13071
aI13072
aI13073
aI13074
aI13075
aI13076
aI13077
aI13078
aI13079
aI13080
aI13081
aI13082
aI13083
aI13084
aI13085
aI13086
aI13087
aI13088
aI13089
aI13090
aI13091
aI13092
aI13093
aI13094
aI13095
aI13096
aI13097
aI13098
aI13099
aI13100
aI13101
aI13102
aI13103
aI13104
aI13105
aI13106
aI13107
aI13108
aI13109
aI13110
aI13111
aI13112
aI13113
aI13114
aI13115
aI13116
aI13117
aI13118
aI13119
aI13120
aI13121
aI13122
aI13123
aI13124
aI13125
aI13126
aI13127
aI13128
aI13129
aI13130
aI13131
aI13132
aI13133
aI13134
aI13135
aI13136
aI13137
aI13138
aI13139
aI13140
aI13141
aI13142
aI13143
aI13144
aI13145
aI13146
aI13147
aI13148
aI13149
aI13150
aI13151
aI13152
aI13153
aI13154
aI13155
aI13156
aI13157
aI13158
aI13159
aI13160
aI13161
aI13162
aI13163
aI13164
aI13165
aI13166
aI13167
aI13168
aI13169
aI13170
aI13171
aI13172
aI13173
aI13174
aI13175
aI13176
aI13177
aI13178
aI13179
aI13180
aI13181
aI13182
aI13183
aI13184
aI13185
aI13186
aI13187
aI13188
aI13189
aI13190
aI13191
aI13192
aI13193
aI13194
aI13195
aI13196
aI13197
aI13198
aI13199
aI13200
aI13201
aI13202
aI13203
aI13204
aI13205
aI13206
aI13207
aI13208
aI13209
aI13210
aI13211
aI13212
aI13213
aI13214
aI13215
aI13216
aI13217
aI13218
aI13219
aI13220
aI13221
aI13222
aI13223
aI13224
aI13225
aI13226
aI13227
aI13228
aI13229
aI13230
aI13231
aI13232
aI13233
aI13234
aI13235
aI13236
aI13237
aI13238
aI13239
aI13240
aI13241
aI13242
aI13243
aI13244
aI13245
aI13246
aI13247
aI13248
aI13249
aI13250
aI13251
aI13252
aI13253
aI13254
aI13255
aI13256
aI13257
aI13258
aI13259
aI13260
aI13261
aI13262
aI13263
aI13264
aI13265
aI13266
aI13267
aI13268
aI13269
aI13270
aI13271
aI13272
aI13273
aI13274
aI13275
aI13276
aI13277
aI13278
aI13279
aI13280
aI13281
aI13282
aI13283
aI13284
aI13285
aI13286
aI13287
aI13288
aI13289
aI13290
aI13291
aI13292
aI13293
aI13294
aI13295
aI13296
aI13297
aI13298
aI13299
aI13300
aI13301
aI13302
aI13303
aI13304
aI13305
aI13306
aI13307
aI13308
aI13309
aI13310
aI13311
aI13312
aI13313
aI13314
aI13315
aI13316
aI13317
aI13318
aI13319
aI13320
aI13321
aI13322
aI13323
aI13324
aI13325
aI13326
aI13327
aI13328
aI13329
aI13330
aI13331
aI13332
aI13333
aI13334
aI13335
aI13336
aI13337
aI13338
aI13339
aI13340
aI13341
aI13342
aI13343
aI13344
aI13345
aI13346
aI13347
aI13348
aI13349
aI13350
aI13351
aI13352
aI13353
aI13354
aI13355
aI13356
aI13357
aI13358
aI13359
aI13360
aI13361
aI13362
aI13363
aI13364
aI13365
aI13366
aI13367
aI13368
aI13369
aI13370
aI13371
aI13372
aI13373
aI13374
aI13375
aI13376
aI13377
aI13378
aI13379
aI13380
aI13381
aI13382
aI13383
aI13384
aI13385
aI13386
aI13387
aI13388
aI13389
aI13390
aI13391
aI13392
aI13393
aI13394
aI13395
aI13396
aI13397
aI13398
aI13399
aI13400
aI13401
aI13402
aI13403
aI13404
aI13405
aI13406
aI13407
aI13408
aI13409
aI13410
aI13411
aI13412
aI13413
aI13414
aI13415
aI13416
aI13417
aI13418
aI13419
aI13420
aI13421
aI13422
aI13423
aI13424
aI13425
aI13426
aI13427
aI13428
aI13429
aI13430
aI13431
aI13432
aI13433
aI13434
aI13435
aI13436
aI13437
aI13438
aI13439
aI13440
aI13441
aI13442
aI13443
aI13444
aI13445
aI13446
aI13447
aI13448
aI13449
aI13450
aI13451
aI13452
aI13453
aI13454
aI13455
aI13456
aI13457
aI13458
aI13459
aI13460
aI13461
aI13462
aI13463
aI13464
aI13465
aI13466
aI13467
aI13468
aI13469
aI13470
aI13471
aI13472
aI13473
aI13474
aI13475
aI13476
aI13477
aI13478
aI13479
aI13480
aI13481
aI13482
aI13483
aI13484
aI13485
aI13486
aI13487
aI13488
aI13489
aI13490
aI13491
aI13492
aI13493
aI13494
aI13495
aI13496
aI13497
aI13498
aI13499
aI13500
aI13501
aI13502
aI13503
aI13504
aI13505
aI13506
aI13507
aI13508
aI13509
aI13510
aI13511
aI13512
aI13513
aI13514
aI13515
aI13516
aI13517
aI13518
aI13519
aI13520
aI13521
aI13522
aI13523
aI13524
aI13525
aI13526
aI13527
aI13528
aI13529
aI13530
aI13531
aI13532
aI13533
aI13534
aI13535
aI13536
aI13537
aI13538
aI13539
aI13540
aI13541
aI13542
aI13543
aI13544
aI13545
aI13546
aI13547
aI13548
aI13549
aI13550
aI13551
aI13552
aI13553
aI13554
aI13555
aI13556
aI13557
aI13558
aI13559
aI13560
aI13561
aI13562
aI13563
aI13564
aI13565
aI13566
aI13567
aI13568
aI13569
aI13570
aI13571
aI13572
aI13573
aI13574
aI13575
aI13576
aI13577
aI13578
aI13579
aI13580
aI13581
aI13582
aI13583
aI13584
aI13585
aI13586
aI13587
aI13588
aI13589
aI13590
aI13591
aI13592
aI13593
aI13594
aI13595
aI13596
aI13597
aI13598
aI13599
aI13600
aI13601
aI13602
aI13603
aI13604
aI13605
aI13606
aI13607
aI13608
aI13609
aI13610
aI13611
aI13612
aI13613
aI13614
aI13615
aI13616
aI13617
aI13618
aI13619
aI13620
aI13621
aI13622
aI13623
aI13624
aI13625
aI13626
aI13627
aI13628
aI13629
aI13630
aI13631
aI13632
aI13633
aI13634
aI13635
aI13636
aI13637
aI13638
aI13639
aI13640
aI13641
aI13642
aI13643
aI13644
aI13645
aI13646
aI13647
aI13648
aI13649
aI13650
aI13651
aI13652
aI13653
aI13654
aI13655
aI13656
aI13657
aI13658
aI13659
aI13660
aI13661
aI13662
aI13663
aI13664
aI13665
aI13666
aI13667
aI13668
aI13669
aI13670
aI13671
aI13672
aI13673
aI13674
aI13675
aI13676
aI13677
aI13678
aI13679
aI13680
aI13681
aI13682
aI13683
aI13684
aI13685
aI13686
aI13687
aI13688
aI13689
aI13690
aI13691
aI13692
aI13693
aI13694
aI13695
aI13696
aI13697
aI13698
aI13699
aI13700
aI13701
aI13702
aI13703
aI13704
aI13705
aI13706
aI13707
aI13708
aI13709
aI13710
aI13711
aI13712
aI13713
aI13714
aI13715
aI13716
aI13717
aI13718
aI13719
aI13720
aI13721
aI13722
aI13723
aI13724
aI13725
aI13726
aI13727
aI13728
aI13729
aI13730
aI13731
aI13732
aI13733
aI13734
aI13735
aI13736
aI13737
aI13738
aI13739
aI13740
aI13741
aI13742
aI13743
aI13744
aI13745
aI13746
aI13747
aI13748
aI13749
aI13750
aI13751
aI13752
aI13753
aI13754
aI13755
aI13756
aI13757
aI13758
aI13759
aI13760
aI13761
aI13762
aI13763
aI13764
aI13765
aI13766
aI13767
aI13768
aI13769
aI13770
aI13771
aI13772
aI13773
aI13774
aI13775
aI13776
aI13777
aI13778
aI13779
aI13780
aI13781
aI13782
aI13783
aI13784
aI13785
aI13786
aI13787
aI13788
aI13789
aI13790
aI13791
aI13792
aI13793
aI13794
aI13795
aI13796
aI13797
aI13798
aI13799
aI13800
aI13801
aI13802
aI13803
aI13804
aI13805
aI13806
aI13807
aI13808
aI13809
aI13810
aI13811
aI13812
aI13813
aI13814
aI13815
aI13816
aI13817
aI13818
aI13819
aI13820
aI13821
aI13822
aI13823
aI13824
aI13825
aI13826
aI13827
aI13828
aI13829
aI13830
aI13831
aI13832
aI13833
aI13834
aI13835
aI13836
aI13837
aI13838
aI13839
aI13840
aI13841
aI13842
aI13843
aI13844
aI13845
aI13846
aI13847
aI13848
aI13849
aI13850
aI13851
aI13852
aI13853
aI13854
aI13855
aI13856
aI13857
aI13858
aI13859
aI13860
aI13861
aI13862
aI13863
aI13864
aI13865
aI13866
aI13867
aI13868
aI13869
aI13870
aI13871
aI13872
aI13873
aI13874
aI13875
aI13876
aI13877
aI13878
aI13879
aI13880
aI13881
aI13882
aI13883
aI13884
aI13885
aI13886
aI13887
aI13888
aI13889
aI13890
aI13891
aI13892
aI13893
aI13894
aI13895
aI13896
aI13897
aI13898
aI13899
aI13900
aI13901
aI13902
aI13903
aI13904
aI13905
aI13906
aI13907
aI13908
aI13909
aI13910
aI13911
aI13912
aI13913
aI13914
aI13915
aI13916
aI13917
aI13918
aI13919
aI13920
aI13921
aI13922
aI13923
aI13924
aI13925
aI13926
aI13927
aI13928
aI13929
aI13930
aI13931
aI13932
aI13933
aI13934
aI13935
aI13936
aI13937
aI13938
aI13939
aI13940
aI13941
aI13942
aI13943
aI13944
aI13945
aI13946
aI13947
aI13948
aI13949
aI13950
aI13951
aI13952
aI13953
aI13954
aI13955
aI13956
aI13957
aI13958
aI13959
aI13960
aI13961
aI13962
aI13963
aI13964
aI13965
aI13966
aI13967
aI13968
aI13969
aI13970
aI13971
aI13972
aI13973
aI13974
aI13975
aI13976
aI13977
aI13978
aI13979
aI13980
aI13981
aI13982
aI13983
aI13984
aI13985
aI13986
aI13987
aI13988
aI13989
aI13990
aI13991
aI13992
aI13993
aI13994
aI13995
aI13996
aI13997
aI13998
aI13999
aI14000
aI14001
aI14002
aI14003
aI14004
aI14005
aI14006
aI14007
aI14008
aI14009
aI14010
aI14011
aI14012
aI14013
aI14014
aI14015
aI14016
aI14017
aI14018
aI14019
aI14020
aI14021
aI14022
aI14023
aI14024
aI14025
aI14026
aI14027
aI14028
aI14029
aI14030
aI14031
aI14032
aI14033
aI14034
aI14035
aI14036
aI14037
aI14038
aI14039
aI14040
aI14041
aI14042
aI14043
aI14044
aI14045
aI14046
aI14047
aI14048
aI14049
aI14050
aI14051
aI14052
aI14053
aI14054
aI14055
aI14056
aI14057
aI14058
aI14059
aI14060
aI14061
aI14062
aI14063
aI14064
aI14065
aI14066
aI14067
aI14068
aI14069
aI14070
aI14071
aI14072
aI14073
aI14074
aI14075
aI14076
aI14077
aI14078
aI14079
aI14080
aI14081
aI14082
aI14083
aI14084
aI14085
aI14086
aI14087
aI14088
aI14089
aI14090
aI14091
aI14092
aI14093
aI14094
aI14095
aI14096
aI14097
aI14098
aI14099
aI14100
aI14101
aI14102
aI14103
aI14104
aI14105
aI14106
aI14107
aI14108
aI14109
aI14110
aI14111
aI14112
aI14113
aI14114
aI14115
aI14116
aI14117
aI14118
aI14119
aI14120
aI14121
aI14122
aI14123
aI14124
aI14125
aI14126
aI14127
aI14128
aI14129
aI14130
aI14131
aI14132
aI14133
aI14134
aI14135
aI14136
aI14137
aI14138
aI14139
aI14140
aI14141
aI14142
aI14143
aI14144
aI14145
aI14146
aI14147
aI14148
aI14149
aI14150
aI14151
aI14152
aI14153
aI14154
aI14155
aI14156
aI14157
aI14158
aI14159
aI14160
aI14161
aI14162
aI14163
aI14164
aI14165
aI14166
aI14167
aI14168
aI14169
aI14170
aI14171
aI14172
aI14173
aI14174
aI14175
aI14176
aI14177
aI14178
aI14179
aI14180
aI14181
aI14182
aI14183
aI14184
aI14185
aI14186
aI14187
aI14188
aI14189
aI14190
aI14191
aI14192
aI14193
aI14194
aI14195
aI14196
aI14197
aI14198
aI14199
aI14200
aI14201
aI14202
aI14203
aI14204
aI14205
aI14206
aI14207
aI14208
aI14209
aI14210
aI14211
aI14212
aI14213
aI14214
aI14215
aI14216
aI14217
aI14218
aI14219
aI14220
aI14221
aI14222
aI14223
aI14224
aI14225
aI14226
aI14227
aI14228
aI14229
aI14230
aI14231
aI14232
aI14233
aI14234
aI14235
aI14236
aI14237
aI14238
aI14239
aI14240
aI14241
aI14242
aI14243
aI14244
aI14245
aI14246
aI14247
aI14248
aI14249
aI14250
aI14251
aI14252
aI14253
aI14254
aI14255
aI14690
aI14693
aI17785
aI17786
aI17787
aI17789
aI17790
aI17791
aI17856
aI17857
aI17858
aI17859
aI17860
aI17861
aI17862
aI17863
aI17864
aI17865
aI17866
aI17867
aI17868
aI17869
aI17870
aI17871
aI17872
aI17873
aI17874
aI17875
aI17876
aI17877
aI17878
aI17879
aI17880
aI17881
aI17882
aI17883
aI17884
aI17885
aI17886
aI17887
aI17888
aI17889
aI17890
aI17891
aI17892
aI17893
aI17894
aI17895
aI17897
aI17898
aI17899
aI17901
aI17904
aI17905
aI17906
aI17907
aI17908
aI17909
aI17910
aI17911
aI17912
aI17913
aI17914
aI17915
aI17916
aI17917
aI17918
aI17919
aI17945
aI17946
aI17947
aI17949
aI17950
aI17951
aI17952
aI17953
aI17954
aI17955
aI17956
aI17957
aI17958
aI17959
aI17960
aI17961
aI17962
aI17963
aI17964
aI17965
aI17966
aI17967
aI17968
aI17969
aI17970
aI17971
aI17972
aI17973
aI17974
aI17975
aI17976
aI17977
aI17978
aI17979
aI17980
aI17981
aI17982
aI17983
aI17985
aI17986
aI17987
aI18000
aI18001
aI18002
aI18003
aI18004
aI18005
aI18006
aI18007
aI18008
aI18009
aI18010
aI18011
aI18012
aI18013
aI18014
aI18015
aI18016
aI18017
aI18019
aI18020
aI18022
aI18023
aI18024
aI18025
aI18026
aI18027
aI18028
aI18029
aI18030
aI18031
aI18032
aI18033
aI18034
aI18035
aI18036
aI18037
aI18038
aI18039
aI18040
aI18041
aI18043
aI18044
aI18816
aI18817
aI18818
aI18819
aI18820
aI18821
aI18822
aI18823
aI18824
aI18825
aI18826
aI18827
aI18828
aI18829
aI18830
aI18831
aI18832
aI18833
aI18834
aI18835
aI18836
aI18837
aI18838
aI18839
aI18840
aI18841
aI18842
aI18843
aI18844
aI18845
aI18846
aI18847
aI18848
aI18849
aI18850
aI18851
aI18852
aI18853
aI18854
aI18855
aI18856
aI18857
aI18858
aI18859
aI18860
aI18861
aI18862
aI18863
aI18864
aI18865
aI18866
aI18867
aI18868
aI18869
aI18870
aI18871
aI18872
aI18873
aI18874
aI18875
aI18876
aI18877
aI18878
aI18879
aI18880
aI18881
aI18882
aI18883
aI18884
aI18885
aI18886
aI18887
aI18888
aI18889
aI18890
aI18891
aI18892
aI18893
aI18894
aI18895
aI18896
aI18897
aI18898
aI18899
aI18900
aI18901
aI18902
aI18903
aI18904
aI18905
aI18906
aI18907
aI18908
aI18909
aI18910
aI18911
aI18912
aI18913
aI18914
aI18915
aI18916
aI18917
aI18918
aI18919
aI18920
aI18921
aI18922
aI18923
aI18924
aI18925
aI18926
aI18927
aI18928
aI18929
aI18930
aI18931
aI18932
aI18933
aI18934
aI18935
aI18936
aI18937
aI18938
aI18939
aI18940
aI18941
aI18942
aI18943
aI18944
aI18945
aI18946
aI18947
aI18948
aI18949
aI18950
aI18951
aI18952
aI18953
aI18954
aI18955
aI18956
aI18957
aI18958
aI18959
aI18960
aI18961
aI18962
aI18963
aI18964
aI18965
aI18966
aI18967
aI18968
aI18969
aI18970
aI18971
aI18972
aI18973
aI18974
aI18975
aI18976
aI18977
aI18978
aI18979
aI18980
aI18981
aI18982
aI18983
aI18984
aI18985
aI18986
aI18987
aI18988
aI18989
aI18990
aI18991
aI18992
aI18993
aI18994
aI18995
aI18996
aI18997
aI18998
aI18999
aI19000
aI19001
aI19002
aI19003
aI19004
aI19005
aI19006
aI19007
aI19008
aI19009
aI19010
aI19011
aI19012
aI19013
aI19014
aI19015
aI19016
aI19017
aI19018
aI19019
aI19020
aI19021
aI19022
aI19023
aI19024
aI19025
aI19026
aI19027
aI19028
aI19029
aI19030
aI19031
aI19032
aI19033
aI19034
aI19035
aI19036
aI19037
aI19038
aI19039
aI19040
aI19041
aI19042
aI19043
aI19044
aI19045
aI19046
aI19047
aI19048
aI19049
aI19050
aI19051
aI19052
aI19053
aI19054
aI19055
aI19056
aI19057
aI19058
aI19059
aI19060
aI19061
aI19062
aI19063
aI19064
aI19065
aI19066
aI19067
aI19068
aI19069
aI19070
aI19071
aI19072
aI19073
aI19074
aI19075
aI19076
aI19077
aI19078
aI19079
aI19080
aI19081
aI19082
aI19083
aI19084
aI19085
aI19086
aI19087
aI19088
aI19089
aI19090
aI19091
aI19092
aI19093
aI19094
aI19095
aI19096
aI19097
aI19098
aI19099
aI19100
aI19101
aI19102
aI19103
aI19104
aI19105
aI19106
aI19107
aI19108
aI19109
aI19110
aI19111
aI19112
aI19113
aI19114
aI19115
aI19116
aI19117
aI19118
aI19119
aI19120
aI19121
aI19122
aI19123
aI19124
aI19125
aI19126
aI19127
aI19128
aI19129
aI19130
aI19131
aI19132
aI19133
aI19134
aI19135
aI19136
aI19137
aI19138
aI19139
aI19140
aI19141
aI19142
aI19143
aI19144
aI19145
aI19146
aI19147
aI19148
aI19149
aI19150
aI19151
aI19152
aI19153
aI19154
aI19155
aI19156
aI19157
aI19158
aI19159
aI19160
aI19161
aI19162
aI19163
aI19164
aI19165
aI19166
aI19167
aI19168
aI19169
aI19170
aI19171
aI19172
aI19173
aI19174
aI19175
aI19176
aI19177
aI19178
aI19179
aI19180
aI19181
aI19182
aI19183
aI19184
aI19185
aI19186
aI19187
aI19188
aI19189
aI19190
aI19191
aI19192
aI19193
aI19194
aI19195
aI19196
aI19197
aI19198
aI19199
aI19200
aI19201
aI19202
aI19203
aI19204
aI19205
aI19206
aI19207
aI19208
aI19209
aI19210
aI19211
aI19212
aI19213
aI19214
aI19215
aI19216
aI19217
aI19218
aI19219
aI19220
aI19221
aI19222
aI19223
aI19224
aI19225
aI19226
aI19227
aI19228
aI19229
aI19230
aI19231
aI19232
aI19233
aI19234
aI19235
aI19236
aI19237
aI19238
aI19239
aI19240
aI19241
aI19242
aI19243
aI19244
aI19245
aI19246
aI19247
aI19248
aI19249
aI19250
aI19251
aI19252
aI19253
aI19254
aI19255
aI19256
aI19257
aI19258
aI19259
aI19260
aI19261
aI19262
aI19263
aI19264
aI19265
aI19266
aI19267
aI19268
aI19269
aI19270
aI19271
aI19272
aI19273
aI19274
aI19275
aI19276
aI19277
aI19278
aI19279
aI19280
aI19281
aI19282
aI19283
aI19284
aI19285
aI19286
aI19287
aI19288
aI19289
aI19290
aI19291
aI19292
aI19293
aI19294
aI19295
aI19296
aI19297
aI19298
aI19299
aI19300
aI19301
aI19302
aI19303
aI19304
aI19305
aI19306
aI19307
aI19308
aI19309
aI19310
aI19311
aI19312
aI19313
aI19314
aI19315
aI19316
aI19317
aI19318
aI19319
aI19320
aI19321
aI19322
aI19323
aI19324
aI19325
aI19326
aI19327
aI19328
aI19329
aI19330
aI19331
aI19332
aI19333
aI19334
aI19335
aI19336
aI19337
aI19338
aI19339
aI19340
aI19341
aI19342
aI19343
aI19344
aI19345
aI19346
aI19347
aI19348
aI19349
aI19350
aI19351
aI19352
aI19353
aI19354
aI19355
aI19356
aI19357
aI19358
aI19359
aI19360
aI19361
aI19362
aI19363
aI19364
aI19365
aI19366
aI19367
aI19368
aI19369
aI19370
aI19371
aI19372
aI19373
aI19374
aI19375
aI19376
aI19377
aI19378
aI19379
aI19380
aI19381
aI19382
aI19383
aI19384
aI19385
aI19386
aI19387
aI19388
aI19389
aI19390
aI19391
aI19392
aI19393
aI19394
aI19395
aI19396
aI19397
aI19398
aI19399
aI19400
aI19401
aI19402
aI19403
aI19404
aI19405
aI19406
aI19407
aI19408
aI19409
aI19410
aI19411
aI19412
aI19413
aI19414
aI19415
aI19416
aI19417
aI19418
aI19419
aI19420
aI19421
aI19422
aI19423
aI19424
aI19425
aI19426
aI19427
aI19428
aI19429
aI19430
aI19431
aI19432
aI19433
aI19434
aI19435
aI19436
aI19437
aI19438
aI19439
aI19440
aI19441
aI19442
aI19443
aI19444
aI19445
aI19446
aI19447
aI19448
aI19449
aI19450
aI19451
aI19452
aI19453
aI19454
aI19455
aI19456
aI19457
aI19458
aI19459
aI19460
aI19461
aI19462
aI19463
aI19464
aI19465
aI19466
aI19467
aI19468
aI19469
aI19470
aI19471
aI19472
aI19473
aI19474
aI19475
aI19476
aI19477
aI19478
aI19479
aI19480
aI19481
aI19482
aI19483
aI19484
aI19485
aI19486
aI19487
aI19488
aI19489
aI19490
aI19491
aI19492
aI19493
aI19494
aI19495
aI19496
aI19497
aI19498
aI19499
aI19500
aI19501
aI19502
aI19503
aI19504
aI19505
aI19506
aI19507
aI19508
aI19509
aI19510
aI19511
aI19512
aI19513
aI19514
aI19515
aI19516
aI19517
aI19518
aI19519
aI19520
aI19521
aI19522
aI19523
aI19524
aI19525
aI19526
aI19527
aI19528
aI19529
aI19530
aI19531
aI19532
aI19533
aI19534
aI19535
aI19536
aI19537
aI19538
aI19539
aI19540
aI19541
aI19542
aI19543
aI19544
aI19545
aI19546
aI19547
aI19548
aI19549
aI19550
aI19551
aI19552
aI19553
aI19554
aI19555
aI19556
aI19557
aI19558
aI19559
aI19560
aI19561
aI19562
aI19563
aI19564
aI19565
aI19566
aI19567
aI19568
aI19569
aI19570
aI19571
aI19572
aI19573
aI19574
aI19575
aI19576
aI19577
aI19578
aI19579
aI19580
aI19581
aI19582
aI19583
aI19584
aI19585
aI19586
aI19587
aI19588
aI19589
aI19590
aI19591
aI19592
aI19593
aI19594
aI19595
aI19596
aI19597
aI19598
aI19599
aI19600
aI19601
aI19602
aI19603
aI19604
aI19605
aI19606
aI19607
aI19608
aI19609
aI19610
aI19611
aI19612
aI19613
aI19614
aI19615
aI19616
aI19617
aI19618
aI19619
aI19620
aI19621
aI19622
aI19623
aI19624
aI19625
aI19626
aI19627
aI19628
aI19629
aI19630
aI19631
aI19632
aI19633
aI19634
aI19635
aI19636
aI19637
aI19638
aI19639
aI19640
aI19641
aI19642
aI19643
aI19644
aI19645
aI19646
aI19647
aI19648
aI19649
aI19650
aI19651
aI19652
aI19653
aI19654
aI19655
aI19656
aI19657
aI19658
aI19659
aI19660
aI19661
aI19662
aI19663
aI19664
aI19665
aI19666
aI19667
aI19668
aI19669
aI19670
aI19671
aI19672
aI19673
aI19674
aI19675
aI19676
aI19677
aI19678
aI19679
aI19680
aI19681
aI19682
aI19683
aI19684
aI19685
aI19686
aI19687
aI19688
aI19689
aI19690
aI19691
aI19692
aI19693
aI19694
aI19695
aI19696
aI19697
aI19698
aI19699
aI19700
aI19701
aI19702
aI19703
aI19704
aI19705
aI19706
aI19707
aI19708
aI19709
aI19710
aI19711
aI19712
aI19713
aI19714
aI19715
aI19716
aI19717
aI19718
aI19719
aI19720
aI19721
aI19722
aI19723
aI19724
aI19725
aI19726
aI19727
aI19728
aI19729
aI19730
aI19731
aI19732
aI19733
aI19734
aI19735
aI19736
aI19737
aI19738
aI19739
aI19740
aI19741
aI19742
aI19743
aI19744
aI19745
aI19746
aI19747
aI19748
aI19749
aI19750
aI19751
aI19752
aI19753
aI19754
aI19755
aI19756
aI19757
aI19758
aI19759
aI19760
aI19761
aI19762
aI19763
aI19764
aI19765
aI19766
aI19767
aI19768
aI19769
aI19770
aI19771
aI19772
aI19773
aI19774
aI19775
aI19776
aI19777
aI19778
aI19779
aI19780
aI19781
aI19782
aI19783
aI19784
aI19785
aI19786
aI19787
aI19788
aI19789
aI19790
aI19791
aI19792
aI19793
aI19794
aI19795
aI19796
aI19797
aI19798
aI19799
aI19800
aI19801
aI19802
aI19803
aI19804
aI19805
aI19806
aI19807
aI19808
aI19809
aI19810
aI19811
aI19812
aI19813
aI19814
aI19815
aI19816
aI19817
aI19818
aI19819
aI19820
aI19821
aI19822
aI19823
aI19824
aI19825
aI19826
aI19827
aI19828
aI19829
aI19830
aI19831
aI19832
aI19833
aI19834
aI19835
aI19836
aI19837
aI19838
aI19839
aI19840
aI19841
aI19842
aI19843
aI19844
aI19845
aI19846
aI19847
aI19848
aI19849
aI19850
aI19851
aI19852
aI19853
aI19854
aI19855
aI19856
aI19857
aI19858
aI19859
aI19860
aI19861
aI19862
aI19863
aI19864
aI19865
aI19866
aI19867
aI19868
aI19869
aI19870
aI19871
aI19872
aI19873
aI19874
aI19875
aI19876
aI19877
aI19878
aI19879
aI19880
aI19881
aI19882
aI19883
aI19884
aI19885
aI19886
aI19887
aI19888
aI19889
aI19890
aI19891
aI19892
aI19893
aI19894
aI19895
aI19896
aI19897
aI19898
aI19899
aI19900
aI19901
aI19902
aI19903
aI19904
aI19905
aI19906
aI19907
aI19908
aI19909
aI19910
aI19911
aI19912
aI19913
aI19914
aI19915
aI19916
aI19917
aI19918
aI19919
aI19920
aI19921
aI19922
aI19923
aI19924
aI19925
aI19926
aI19927
aI19928
aI19929
aI19930
aI19931
aI19932
aI19933
aI19934
aI19935
aI19936
aI19937
aI19938
aI19939
aI19940
aI19941
aI19942
aI19943
aI19944
aI19945
aI19946
aI19947
aI19948
aI19949
aI19950
aI19951
aI19952
aI19953
aI19954
aI19955
aI19956
aI19957
aI19958
aI19959
aI19960
aI19961
aI19962
aI19963
aI19964
aI19965
aI19966
aI19967
aI19968
aI19969
aI19970
aI19971
aI19972
aI19973
aI19974
aI19975
aI19976
aI19977
aI19978
aI19979
aI19980
aI19981
aI19982
aI19983
aI19984
aI19985
aI19986
aI19987
aI19988
aI19989
aI19990
aI19991
aI19992
aI19993
aI19994
aI19995
aI19996
aI19997
aI19998
aI19999
aI20000
aI20001
aI20002
aI20003
aI20004
aI20005
aI20006
aI20007
aI20008
aI20009
aI20010
aI20011
aI20012
aI20013
aI20014
aI20015
aI20016
aI20017
aI20018
aI20019
aI20020
aI20021
aI20022
aI20023
aI20024
aI20025
aI20026
aI20027
aI20028
aI20029
aI20030
aI20031
aI20032
aI20033
aI20034
aI20035
aI20036
aI20037
aI20038
aI20039
aI20040
aI20041
aI20042
aI20043
aI20044
aI20045
aI20046
aI20047
aI20048
aI20049
aI20050
aI20051
aI20052
aI20053
aI20054
aI20055
aI20056
aI20057
aI20058
aI20059
aI20060
aI20061
aI20062
aI20063
aI20064
aI20065
aI20066
aI20067
aI20068
aI20069
aI20070
aI20071
aI20072
aI20073
aI20074
aI20075
aI20076
aI20077
aI20078
aI20079
aI20080
aI20081
aI20082
aI20083
aI20084
aI20085
aI20086
aI20087
aI20088
aI20089
aI20090
aI20091
aI20092
aI20093
aI20094
aI20095
aI20096
aI20097
aI20098
aI20099
aI20100
aI20101
aI20102
aI20103
aI20104
aI20105
aI20106
aI20107
aI20108
aI20109
aI20110
aI20111
aI20112
aI20113
aI20114
aI20115
aI20116
aI20117
aI20118
aI20119
aI20120
aI20121
aI20122
aI20123
aI20124
aI20125
aI20126
aI20127
aI20128
aI20129
aI20130
aI20131
aI20132
aI20133
aI20134
aI20135
aI20136
aI20137
aI20138
aI20139
aI20140
aI20141
aI20142
aI20143
aI20144
aI20145
aI20146
aI20147
aI20148
aI20149
aI20150
aI20151
aI20152
aI20153
aI20154
aI20155
aI20156
aI20157
aI20158
aI20159
aI20160
aI20161
aI20162
aI20163
aI20164
aI20165
aI20166
aI20167
aI20168
aI20169
aI20170
aI20171
aI20172
aI20173
aI20174
aI20175
aI20176
aI20177
aI20178
aI20179
aI20180
aI20181
aI20182
aI20183
aI20184
aI20185
aI20186
aI20187
aI20188
aI20189
aI20190
aI20191
aI20192
aI20193
aI20194
aI20195
aI20196
aI20197
aI20198
aI20199
aI20200
aI20201
aI20202
aI20203
aI20204
aI20205
aI20206
aI20207
aI20208
aI20209
aI20210
aI20211
aI20212
aI20213
aI20214
aI20215
aI20216
aI20217
aI20218
aI20219
aI20220
aI20221
aI20222
aI20223
aI20224
aI20225
aI20226
aI20227
aI20228
aI20229
aI20230
aI20231
aI20232
aI20233
aI20234
aI20235
aI20236
aI20237
aI20238
aI20239
aI20240
aI20241
aI20242
aI20243
aI20244
aI20245
aI20246
aI20247
aI20248
aI20249
aI20250
aI20251
aI20252
aI20253
aI20254
aI20255
aI20256
aI20257
aI20258
aI20259
aI20260
aI20261
aI20262
aI20263
aI20264
aI20265
aI20266
aI20267
aI20268
aI20269
aI20270
aI20271
aI20272
aI20273
aI20274
aI20275
aI20276
aI20277
aI20278
aI20279
aI20280
aI20281
aI20282
aI20283
aI20284
aI20285
aI20286
aI20287
aI20288
aI20289
aI20290
aI20291
aI20292
aI20293
aI20294
aI20295
aI20296
aI20297
aI20298
aI20299
aI20300
aI20301
aI20302
aI20303
aI20304
aI20305
aI20306
aI20307
aI20308
aI20309
aI20310
aI20311
aI20312
aI20313
aI20314
aI20315
aI20316
aI20317
aI20318
aI20319
aI20320
aI20321
aI20322
aI20323
aI20324
aI20325
aI20326
aI20327
aI20328
aI20329
aI20330
aI20331
aI20332
aI20333
aI20334
aI20335
aI20336
aI20337
aI20338
aI20339
aI20340
aI20341
aI20342
aI20343
aI20344
aI20345
aI20346
aI20347
aI20348
aI20349
aI20350
aI20351
aI20352
aI20353
aI20354
aI20355
aI20356
aI20357
aI20358
aI20359
aI20360
aI20361
aI20362
aI20363
aI20364
aI20365
aI20366
aI20367
aI20368
aI20369
aI20370
aI20371
aI20372
aI20373
aI20374
aI20375
aI20376
aI20377
aI20378
aI20379
aI20380
aI20381
aI20382
aI20383
aI20384
aI20385
aI20386
aI20387
aI20388
aI20389
aI20390
aI20391
aI20392
aI20393
aI20394
aI20395
aI20396
aI20397
aI20398
aI20399
aI20400
aI20401
aI20402
aI20403
aI20404
aI20405
aI20406
aI20407
aI20408
aI20409
aI20410
aI20411
aI20412
aI20413
aI20414
aI20415
aI20512
aI20513
aI20514
aI20515
aI20516
aI20517
aI20518
aI20519
aI20520
aI20521
aI20522
aI20523
aI20524
aI20525
aI20526
aI20527
aI20528
aI20529
aI20530
aI20531
aI20532
aI20533
aI20534
aI20535
aI20536
aI20537
aI20538
aI20539
aI20540
aI20541
aI20542
aI20543
aI20544
aI20545
aI20546
aI20547
aI20548
aI20549
aI20550
aI20551
aI20552
aI20553
aI20554
aI20555
aI20556
aI20557
aI20558
aI20559
aI20560
aI20561
aI20562
aI20563
aI20564
aI20565
aI20566
aI20567
aI20568
aI20569
aI20570
aI20571
aI20572
aI20573
aI20574
aI20575
aI20576
aI20577
aI20578
aI20579
aI20580
aI20581
aI20582
aI20583
aI20584
aI20585
aI20586
aI20587
aI20588
aI20589
aI20590
aI20591
aI20592
aI20593
aI20594
aI20595
aI20596
aI20597
aI20598
aI20599
aI20600
aI20601
aI20602
aI20603
aI20604
aI20605
aI20606
aI20607
aI20736
aI20737
aI20739
aI20740
aI20742
aI20743
aI20760
aI20764
aI20768
aI20772
aI20773
aI20774
aI20775
aI20792
aI20793
aI20794
aI20795
aI20796
aI20797
aI20798
aI20799
aI20806
aI20864
aI20865
aI20866
aI20867
aI20868
aI20869
aI20870
aI20871
aI20872
aI20873
aI20874
aI20875
aI20876
aI20877
aI20878
aI20879
aI20880
aI20881
aI20882
aI20883
aI20884
aI20885
aI20886
aI20887
aI20888
aI20889
aI20890
aI20891
aI20892
aI20893
aI20894
aI20895
aI20896
aI20897
aI20898
aI20899
aI20900
aI20901
aI20902
aI20903
aI20904
aI20905
aI20906
aI20907
aI20908
aI20909
aI20910
aI20911
aI20912
aI20913
aI20914
aI20915
aI20916
aI20917
aI20918
aI20919
aI20920
aI20921
aI20922
aI20923
aI20924
aI20925
aI20926
aI20927
aI20928
aI20929
aI20930
aI20931
aI20932
aI20933
aI20934
aI20935
aI20936
aI20937
aI20938
aI20939
aI20940
aI20941
aI20942
aI20943
aI20944
aI20945
aI20946
aI20947
aI20948
aI20949
aI20950
aI20951
aI20952
aI20953
aI20954
aI20955
aI20956
aI20957
aI20958
aI20959
aI20960
aI20961
aI20962
aI20963
aI20964
aI20965
aI20966
aI20967
aI20968
aI20969
aI20970
aI20971
aI20972
aI20973
aI20974
aI20975
aI20976
aI20977
aI20978
aI20979
aI20980
aI20981
aI20982
aI20983
aI20984
aI20985
aI20986
aI20987
aI20988
aI20989
aI20990
aI20991
aI20992
aI20993
aI20994
aI20995
aI20996
aI20997
aI20998
aI20999
aI21000
aI21001
aI21002
aI21003
aI21004
aI21005
aI21006
aI21007
aI21008
aI21009
aI21010
aI21011
aI21012
aI21013
aI21014
aI21015
aI21016
aI21017
aI21018
aI21019
aI21020
aI21021
aI21022
aI21023
aI21024
aI21025
aI21026
aI21027
aI21028
aI21029
aI21030
aI21031
aI21032
aI21033
aI21034
aI21035
aI21036
aI21037
aI21038
aI21039
aI21040
aI21041
aI21042
aI21043
aI21044
aI21045
aI21046
aI21047
aI21048
aI21049
aI21050
aI21051
aI21052
aI21053
aI21054
aI21055
aI21056
aI21057
aI21058
aI21059
aI21060
aI21061
aI21062
aI21063
aI21064
aI21065
aI21066
aI21067
aI21068
aI21069
aI21070
aI21071
aI21072
aI21073
aI21074
aI21075
aI21076
aI21077
aI21078
aI21079
aI21080
aI21081
aI21082
aI21083
aI21084
aI21085
aI21086
aI21087
aI21088
aI21089
aI21090
aI21091
aI21092
aI21093
aI21094
aI21095
aI21096
aI21097
aI21098
aI21099
aI21100
aI21101
aI21102
aI21103
aI21104
aI21105
aI21106
aI21107
aI21108
aI21109
aI21110
aI21111
aI21112
aI21113
aI21114
aI21115
aI21116
aI21117
aI21118
aI21119
aI21120
aI21121
aI21122
aI21123
aI21124
aI21125
aI21126
aI21127
aI21128
aI21129
aI21130
aI21131
aI21132
aI21133
aI21134
aI21135
aI21136
aI21137
aI21138
aI21139
aI21140
aI21141
aI21142
aI21143
aI21144
aI21145
aI21146
aI21147
aI21148
aI21149
aI21150
aI21151
aI21152
aI21153
aI21154
aI21155
aI21156
aI21157
aI21158
aI21159
aI21160
aI21161
aI21162
aI21163
aI21164
aI21165
aI21166
aI21167
aI21168
aI21169
aI21170
aI21171
aI21172
aI21173
aI21174
aI21175
aI21176
aI21177
aI21178
aI21179
aI21180
aI21181
aI21182
aI21183
aI21184
aI21185
aI21186
aI21187
aI21188
aI21189
aI21190
aI21191
aI21192
aI21193
aI21194
aI21195
aI21196
aI21197
aI21198
aI21199
aI21200
aI21201
aI21202
aI21203
aI21204
aI21205
aI21206
aI21207
aI21208
aI21209
aI21210
aI21211
aI21212
aI21213
aI21214
aI21215
aI21216
aI21217
aI21218
aI21219
aI21220
aI21221
aI21222
aI21223
aI21224
aI21225
aI21226
aI21227
aI21228
aI21229
aI21230
aI21231
aI21232
aI21233
aI21234
aI21235
aI21236
aI21237
aI21238
aI21239
aI21240
aI21241
aI21242
aI21243
aI21244
aI21245
aI21246
aI21247
aI21248
aI21249
aI21250
aI21251
aI21252
aI21253
aI21254
aI21255
aI21256
aI21257
aI21258
aI21259
aI21260
aI21261
aI21262
aI21263
aI21264
aI21265
aI21266
aI21267
aI21268
aI21269
aI21270
aI21271
aI21272
aI21273
aI21274
aI21275
aI21276
aI21277
aI21278
aI21279
aI21280
aI21281
aI21282
aI21283
aI21284
aI21285
aI21286
aI21287
aI21288
aI21289
aI21290
aI21291
aI21292
aI21293
aI21294
aI21295
aI21296
aI21297
aI21298
aI21299
aI21300
aI21301
aI21302
aI21303
aI21304
aI21305
aI21306
aI21307
aI21308
aI21309
aI21310
aI21311
aI21312
aI21313
aI21314
aI21315
aI21316
aI21317
aI21318
aI21319
aI21320
aI21321
aI21322
aI21323
aI21324
aI21325
aI21326
aI21327
aI21328
aI21329
aI21330
aI21331
aI21332
aI21333
aI21334
aI21335
aI21336
aI21337
aI21338
aI21339
aI21340
aI21341
aI21342
aI21343
aI21344
aI21345
aI21346
aI21347
aI21348
aI21349
aI21350
aI21351
aI21352
aI21353
aI21354
aI21355
aI21356
aI21357
aI21358
aI21359
aI21360
aI21361
aI21362
aI21363
aI21364
aI21365
aI21366
aI21367
aI21368
aI21369
aI21370
aI21371
aI21372
aI21373
aI21374
aI21375
aI21376
aI21377
aI21378
aI21379
aI21380
aI21381
aI21382
aI21383
aI21384
aI21385
aI21386
aI21387
aI21388
aI21389
aI21390
aI21391
aI21392
aI21393
aI21394
aI21395
aI21396
aI21397
aI21398
aI21399
aI21400
aI21401
aI21402
aI21403
aI21404
aI21405
aI21406
aI21407
aI21408
aI21409
aI21410
aI21411
aI21412
aI21413
aI21414
aI21415
aI21416
aI21417
aI21418
aI21419
aI21420
aI21421
aI21422
aI21423
aI21424
aI21425
aI21426
aI21427
aI21428
aI21429
aI21430
aI21431
aI21432
aI21433
aI21434
aI21435
aI21436
aI21437
aI21438
aI21439
aI21440
aI21441
aI21442
aI21443
aI21444
aI21445
aI21446
aI21447
aI21448
aI21449
aI21450
aI21451
aI21452
aI21453
aI21454
aI21455
aI21456
aI21457
aI21458
aI21459
aI21460
aI21461
aI21462
aI21463
aI21464
aI21465
aI21466
aI21467
aI21468
aI21469
aI21470
aI21471
aI21472
aI21473
aI21474
aI21475
aI21476
aI21477
aI21478
aI21479
aI21480
aI21481
aI21482
aI21483
aI21484
aI21485
aI21486
aI21487
aI21488
aI21489
aI21490
aI21491
aI21492
aI21493
aI21494
aI21495
aI21496
aI21497
aI21498
aI21499
aI21500
aI21501
aI21502
aI21503
aI21504
aI21505
aI21506
aI21507
aI21508
aI21509
aI21510
aI21511
aI21512
aI21513
aI21514
aI21515
aI21516
aI21517
aI21518
aI21519
aI21520
aI21521
aI21522
aI21523
aI21524
aI21525
aI21526
aI21527
aI21528
aI21529
aI21530
aI21531
aI21532
aI21533
aI21534
aI21535
aI21536
aI21537
aI21538
aI21539
aI21540
aI21541
aI21542
aI21543
aI21544
aI21545
aI21546
aI21547
aI21548
aI21549
aI21550
aI21551
aI21552
aI21553
aI21554
aI21555
aI21556
aI21557
aI21558
aI21559
aI21560
aI21561
aI21562
aI21563
aI21564
aI21565
aI21566
aI21567
aI21568
aI21569
aI21570
aI21571
aI21572
aI21573
aI21574
aI21575
aI21576
aI21577
aI21578
aI21579
aI21580
aI21581
aI21582
aI21583
aI21584
aI21585
aI21586
aI21587
aI21588
aI21589
aI21590
aI21591
aI21592
aI21593
aI21594
aI21595
aI21596
aI21597
aI21598
aI21599
aI21600
aI21601
aI21602
aI21603
aI21604
aI21605
aI21606
aI21607
aI21608
aI21609
aI21610
aI21611
aI21612
aI21613
aI21614
aI21615
aI21616
aI21617
aI21618
aI21619
aI21620
aI21621
aI21622
aI21623
aI21624
aI21625
aI21626
aI21627
aI21628
aI21629
aI21630
aI21631
aI21632
aI21633
aI21634
aI21635
aI21636
aI21637
aI21638
aI21639
aI21640
aI21641
aI21642
aI21643
aI21644
aI21645
aI21646
aI21647
aI21648
aI21649
aI21650
aI21651
aI21652
aI21653
aI21654
aI21655
aI21656
aI21657
aI21658
aI21659
aI21660
aI21661
aI21662
aI21663
aI21664
aI21665
aI21666
aI21667
aI21668
aI21669
aI21670
aI21671
aI21672
aI21673
aI21674
aI21675
aI21676
aI21677
aI21678
aI21679
aI21680
aI21681
aI21682
aI21683
aI21684
aI21685
aI21686
aI21687
aI21688
aI21689
aI21690
aI21691
aI21692
aI21693
aI21694
aI21695
aI21696
aI21697
aI21698
aI21699
aI21700
aI21701
aI21702
aI21703
aI21704
aI21705
aI21706
aI21707
aI21708
aI21709
aI21710
aI21711
aI21712
aI21713
aI21714
aI21715
aI21716
aI21717
aI21718
aI21719
aI21720
aI21721
aI21722
aI21723
aI21724
aI21725
aI21726
aI21727
aI21728
aI21729
aI21730
aI21731
aI21732
aI21733
aI21734
aI21735
aI21736
aI21737
aI21738
aI21739
aI21740
aI21741
aI21742
aI21743
aI21744
aI21745
aI21746
aI21747
aI21748
aI21749
aI21750
aI21751
aI21752
aI21753
aI21754
aI21755
aI21756
aI21757
aI21758
aI21759
aI21760
aI21761
aI21762
aI21763
aI21764
aI21765
aI21766
aI21767
aI21768
aI21769
aI21770
aI21771
aI21772
aI21773
aI21774
aI21775
aI21776
aI21777
aI21778
aI21779
aI21780
aI21781
aI21782
aI21783
aI21784
aI21785
aI21786
aI21787
aI21788
aI21789
aI21790
aI21791
aI21792
aI21793
aI21794
aI21795
aI21796
aI21797
aI21798
aI21799
aI21800
aI21801
aI21802
aI21803
aI21804
aI21805
aI21806
aI21807
aI21808
aI21809
aI21810
aI21811
aI21812
aI21813
aI21814
aI21815
aI21816
aI21817
aI21818
aI21819
aI21820
aI21821
aI21822
aI21823
aI21824
aI21825
aI21826
aI21827
aI21828
aI21829
aI21830
aI21831
aI21832
aI21833
aI21834
aI21835
aI21836
aI21837
aI21838
aI21839
aI21840
aI21841
aI21842
aI21843
aI21844
aI21845
aI21846
aI21847
aI21848
aI21849
aI21850
aI21851
aI21852
aI21853
aI21854
aI21855
aI21856
aI21857
aI21858
aI21859
aI21860
aI21861
aI21862
aI21863
aI21864
aI21865
aI21866
aI21867
aI21868
aI21869
aI21870
aI21871
aI21872
aI21873
aI21874
aI21875
aI21876
aI21877
aI21878
aI21879
aI21880
aI21881
aI21882
aI21883
aI21884
aI21885
aI21886
aI21887
aI21888
aI21889
aI21890
aI21891
aI21892
aI21893
aI21894
aI21895
aI21896
aI21897
aI21898
aI21899
aI21900
aI21901
aI21902
aI21903
aI21904
aI21905
aI21906
aI21907
aI21908
aI21909
aI21910
aI21911
aI21912
aI21913
aI21914
aI21915
aI21916
aI21917
aI21918
aI21919
aI22208
aI22209
aI22210
aI22211
aI22212
aI22213
aI22214
aI22215
aI22216
aI22217
aI22218
aI22219
aI22220
aI22221
aI22222
aI22223
aI22224
aI22225
aI22226
aI22227
aI22228
aI22229
aI22230
aI22231
aI22232
aI22233
aI22234
aI22235
aI22236
aI22237
aI22238
aI22239
aI22240
aI22241
aI22242
aI22243
aI22244
aI22245
aI22246
aI22247
aI22248
aI22249
aI22250
aI22251
aI22252
aI22253
aI22254
aI22255
aI22256
aI22257
aI22258
aI22259
aI22260
aI22261
aI22262
aI22263
aI22264
aI22265
aI22266
aI22267
aI22268
aI22269
aI22270
aI22271
aI22272
aI22273
aI22274
aI22275
aI22276
aI22277
aI22278
aI22279
aI22280
aI22281
aI22282
aI22283
aI22284
aI22285
aI22286
aI22287
aI22288
aI22289
aI22290
aI22291
aI22292
aI22293
aI22294
aI22295
aI22296
aI22297
aI22298
aI22299
aI22300
aI22301
aI22302
aI22303
aI22304
aI22305
aI22306
aI22307
aI22308
aI22309
aI22310
aI22311
aI22312
aI22313
aI22314
aI22315
aI22316
aI22317
aI22318
aI22319
aI22320
aI22321
aI22322
aI22323
aI22324
aI22325
aI22326
aI22327
aI22328
aI22329
aI22330
aI22331
aI22332
aI22333
aI22334
aI22335
aI22336
aI22337
aI22338
aI22339
aI22340
aI22341
aI22342
aI22343
aI22344
aI22345
aI22346
aI22347
aI22348
aI22349
aI22350
aI22351
aI22352
aI22353
aI22354
aI22355
aI22356
aI22357
aI22358
aI22359
aI22360
aI22361
aI22362
aI22363
aI22364
aI22365
aI22366
aI22367
aI22368
aI22369
aI22370
aI22371
aI22372
aI22373
aI22374
aI22375
aI22376
aI22377
aI22378
aI22379
aI22380
aI22381
aI22382
aI22383
aI22384
aI22385
aI22386
aI22387
aI22388
aI22389
aI22390
aI22391
aI22392
aI22393
aI22394
aI22395
aI22396
aI22397
aI22398
aI22399
aI22400
aI22401
aI22402
aI22403
aI22404
aI22405
aI22406
aI22407
aI22408
aI22409
aI22410
aI22411
aI22412
aI22413
aI22414
aI22415
aI22416
aI22417
aI22418
aI22419
aI22420
aI22421
aI22422
aI22423
aI22424
aI22425
aI22426
aI22427
aI22428
aI22429
aI22430
aI22431
aI22432
aI22433
aI22434
aI22435
aI22436
aI22437
aI22438
aI22439
aI22440
aI22441
aI22442
aI22443
aI22444
aI22445
aI22446
aI22447
aI22448
aI22449
aI22450
aI22451
aI22452
aI22453
aI22454
aI22455
aI22456
aI22457
aI22458
aI22459
aI22460
aI22461
aI22462
aI22463
aI22464
aI22465
aI22466
aI22467
aI22468
aI22469
aI22470
aI22471
aI22472
aI22473
aI22474
aI22475
aI22476
aI22477
aI22478
aI22479
aI22480
aI22481
aI22482
aI22483
aI22484
aI22485
aI22486
aI22487
aI22488
aI22489
aI22490
aI22491
aI22492
aI22493
aI22494
aI22495
aI22496
aI22497
aI22498
aI22499
aI22500
aI22501
aI22502
aI22503
aI22504
aI22505
aI22506
aI22507
aI22508
aI22509
aI22510
aI22511
aI22512
aI22513
aI22514
aI22515
aI22516
aI22517
aI22518
aI22519
aI22520
aI22521
aI22522
aI22523
aI22524
aI22525
aI22526
aI22527
aI22528
aI22529
aI22530
aI22531
aI22532
aI22533
aI22534
aI22535
aI22536
aI22537
aI22538
aI22539
aI22540
aI22541
aI22542
aI22543
aI22544
aI22545
aI22546
aI22547
aI22548
aI22549
aI22550
aI22551
aI22552
aI22553
aI22554
aI22555
aI22556
aI22557
aI22558
aI22559
aI22560
aI22561
aI22562
aI22563
aI22564
aI22565
aI22566
aI22567
aI22568
aI22569
aI22570
aI22571
aI22572
aI22573
aI22574
aI22575
aI22576
aI22577
aI22578
aI22579
aI22580
aI22581
aI22582
aI22583
aI23192
aI23193
aI23194
aI23195
aI23196
aI23197
aI23198
aI23199
aI23200
aI23201
aI23202
aI23203
aI23204
aI23205
aI23206
aI23207
aI23208
aI23209
aI23210
aI23211
aI23212
aI23213
aI23214
aI23215
aI23216
aI23217
aI23218
aI23219
aI23220
aI23221
aI23222
aI23223
aI23224
aI23225
aI23226
aI23227
aI23228
aI23229
aI23230
aI23231
aI23232
aI23233
aI23234
aI23235
aI23236
aI23237
aI23238
aI23239
aI23240
aI23241
aI23242
aI23243
aI23244
aI23245
aI23246
aI23247
aI23248
aI23249
aI23250
aI23251
aI23252
aI23253
aI23254
aI23255
aI23256
aI23257
aI23258
aI23259
aI23260
aI23261
aI23262
aI23263
aI23264
aI23265
aI23266
aI23267
aI23268
aI23269
aI23270
aI23271
aI23272
aI23273
aI23274
aI23275
aI23276
aI23277
aI23278
aI23279
aI23280
aI23281
aI23282
aI23283
aI23284
aI23285
aI23286
aI23287
aI23288
aI23289
aI23290
aI23291
aI23292
aI23293
aI23294
aI23295
aI23296
aI23297
aI23298
aI23299
aI23300
aI23301
aI23302
aI23303
aI23304
aI23305
aI23306
aI23307
aI23308
aI23309
aI23310
aI23311
aI23312
aI23313
aI23314
aI23315
aI23316
aI23317
aI23318
aI23319
aI23320
aI23321
aI23322
aI23323
aI23324
aI23325
aI23326
aI23327
aI23328
aI23329
aI23330
aI23331
aI23332
aI23333
aI23334
aI23335
aI23336
aI23337
aI23338
aI23339
aI23340
aI23341
aI23342
aI23343
aI23344
aI23345
aI23346
aI23347
aI23348
aI23349
aI23350
aI23351
aI23352
aI23353
aI23354
aI23355
aI23356
aI23357
aI23358
aI23359
aI23360
aI23361
aI23362
aI23363
aI23364
aI23365
aI23366
aI23367
aI23368
aI23369
aI23370
aI23371
aI23372
aI23373
aI23374
aI23375
aI23376
aI23377
aI23378
aI23379
aI23380
aI23381
aI23382
aI23383
aI23384
aI23385
aI23386
aI23387
aI23388
aI23389
aI23390
aI23391
aI23392
aI23393
aI23394
aI23395
aI23396
aI23397
aI23398
aI23399
aI23400
aI23401
aI23402
aI23403
aI23404
aI23405
aI23406
aI23407
aI23408
aI23409
aI23410
aI23411
aI23412
aI23413
aI23414
aI23415
aI23416
aI23417
aI23418
aI23419
aI23420
aI23421
aI23422
aI23423
aI23424
aI23425
aI23426
aI23427
aI23428
aI23429
aI23430
aI23431
aI23432
aI23433
aI23434
aI23435
aI23436
aI23437
aI23438
aI23439
aI23440
aI23441
aI23442
aI23443
aI23444
aI23445
aI23446
aI23447
aI23448
aI23449
aI23450
aI23451
aI23452
aI23453
aI23454
aI23455
aI23456
aI23457
aI23458
aI23459
aI23460
aI23461
aI23462
aI23463
aI23464
aI23465
aI23466
aI23467
aI23468
aI23469
aI23470
aI23471
aI23472
aI23473
aI23474
aI23475
aI23476
aI23477
aI23478
aI23479
aI23480
aI23481
aI23482
aI23483
aI23484
aI23485
aI23486
aI23487
aI23488
aI23489
aI23490
aI23491
aI23492
aI23493
aI23494
aI23495
aI23496
aI23497
aI23498
aI23499
aI23500
aI23501
aI23502
aI23503
aI23504
aI23505
aI23506
aI23507
aI23508
aI23509
aI23510
aI23511
aI23512
aI23513
aI23514
aI23515
aI23516
aI23517
aI23518
aI23519
aI23520
aI23521
aI23522
aI23523
aI23524
aI23525
aI23526
aI23527
aI23528
aI23529
aI23530
aI23531
aI23532
aI23533
aI23534
aI23535
aI23536
aI23537
aI23538
aI23539
aI23540
aI23541
aI23542
aI23543
aI23544
aI23545
aI23546
aI23547
aI23548
aI23549
aI23550
aI23551
aI23552
aI23553
aI23554
aI23555
aI23556
aI23557
aI23558
aI23559
aI23560
aI23561
aI23562
aI23563
aI23564
aI23565
aI23566
aI23567
aI23568
aI23569
aI23570
aI23571
aI23572
aI23573
aI23574
aI23575
aI23576
aI23577
aI23578
aI23579
aI23580
aI23581
aI23582
aI23583
aI23584
aI23585
aI23586
aI23587
aI23588
aI23589
aI23590
aI23591
aI23592
aI23593
aI23594
aI23595
aI23596
aI23597
aI23598
aI23599
aI23600
aI23601
aI23602
aI23603
aI23604
aI23605
aI23606
aI23607
aI23608
aI23609
aI23610
aI23611
aI23612
aI23613
aI23614
aI23615
aI23616
aI23617
aI23618
aI23619
aI23620
aI23621
aI23622
aI23623
aI23624
aI23625
aI23626
aI23627
aI23628
aI23629
aI23630
aI23631
aI23632
aI23633
aI23634
aI23635
aI23636
aI23637
aI23638
aI23639
aI23640
aI23641
aI23642
aI23643
aI23644
aI23645
aI23646
aI23647
aI23648
aI23649
aI23650
aI23651
aI23652
aI23653
aI23654
aI23655
aI23656
aI23657
aI23658
aI23659
aI23660
aI23661
aI23662
aI23663
aI23664
aI23665
aI23666
aI23667
aI23668
aI23669
aI23670
aI23671
aI23672
aI23673
aI23674
aI23675
aI23676
aI23677
aI23678
aI23679
aI23680
aI23681
aI23682
aI23683
aI23684
aI23685
aI23686
aI23687
aI23688
aI23689
aI23690
aI23691
aI23692
aI23693
aI23694
aI23695
aI23696
aI23697
aI23698
aI23699
aI23700
aI23701
aI23702
aI23703
aI23704
aI23705
aI23706
aI23707
aI23708
aI23709
aI23710
aI23711
aI23712
aI23713
aI23714
aI23715
aI23716
aI23717
aI23718
aI23719
aI23720
aI23721
aI23722
aI23723
aI23724
aI23725
aI23726
aI23727
aI23728
aI23729
aI23730
aI23731
aI23732
aI23733
aI23734
aI23735
aI23736
aI23737
aI23738
aI23739
aI23740
aI23741
aI23742
aI23743
aI23744
aI23745
aI23746
aI23747
aI23748
aI23749
aI23750
aI23751
aI23752
aI23753
aI23754
aI23755
aI23756
aI23757
aI23758
aI23759
aI23760
aI23761
aI23762
aI23763
aI23764
aI23765
aI23766
aI23767
aI23768
aI23769
aI23770
aI23771
aI23772
aI23773
aI23774
aI23775
aI23776
aI23777
aI23778
aI23779
aI23780
aI23781
aI23782
aI23783
aI23784
aI23785
aI23786
aI23787
aI23788
aI23789
aI23790
aI23791
aI23792
aI23793
aI23794
aI23795
aI23796
aI23797
aI23798
aI23799
aI23800
aI23801
aI23802
aI23803
aI23804
aI23805
aI23806
aI23807
aI23808
aI23809
aI23810
aI23811
aI23812
aI23813
aI23814
aI23815
aI23816
aI23817
aI23818
aI23819
aI23820
aI23821
aI23822
aI23823
aI23824
aI23825
aI23826
aI23827
aI23828
aI23829
aI23830
aI23831
aI23832
aI23833
aI23834
aI23835
aI23836
aI23837
aI23838
aI23839
aI23840
aI23841
aI23842
aI23843
aI23844
aI23845
aI23846
aI23847
aI23848
aI23849
aI23850
aI23851
aI23852
aI23853
aI23854
aI23855
aI23856
aI23857
aI23858
aI23859
aI23860
aI23861
aI23862
aI23863
aI23864
aI23865
aI23866
aI23867
aI23868
aI23869
aI23870
aI23871
aI23872
aI23873
aI23874
aI23875
aI23876
aI23877
aI23878
aI23879
aI23880
aI23881
aI23882
aI23883
aI23884
aI23885
aI23886
aI23887
aI23888
aI23889
aI23890
aI23891
aI23892
aI23893
aI23894
aI23895
aI23896
aI23897
aI23898
aI23899
aI23900
aI23901
aI23902
aI23903
aI23904
aI23905
aI23906
aI23907
aI23908
aI23909
aI23910
aI23911
aI23912
aI23913
aI23914
aI23915
aI23916
aI23917
aI23918
aI23919
aI23920
aI23921
aI23922
aI23923
aI23924
aI23925
aI23926
aI23927
aI23928
aI23929
aI23930
aI23931
aI23932
aI23933
aI23934
aI23935
aI23936
aI23937
aI23938
aI23939
aI23940
aI23941
aI23942
aI23943
aI23944
aI23945
aI23946
aI23947
aI23948
aI23949
aI23950
aI23951
aI23952
aI23953
aI23954
aI23955
aI23956
aI23957
aI23958
aI23959
aI23960
aI23961
aI23962
aI23963
aI23964
aI23965
aI23966
aI23967
aI23968
aI23969
aI23970
aI23971
aI23972
aI23973
aI23974
aI23975
aI23976
aI23977
aI23978
aI23979
aI23980
aI23981
aI23982
aI23983
aI23984
aI23985
aI23986
aI23987
aI23988
aI23989
aI23990
aI23991
aI23992
aI23993
aI23994
aI23995
aI23996
aI23997
aI23998
aI23999
aI24000
aI24001
aI24002
aI24003
aI24004
aI24005
aI24006
aI24007
aI24008
aI24009
aI24010
aI24011
aI24012
aI24013
aI24014
aI24015
aI24016
aI24017
aI24018
aI24019
aI24020
aI24021
aI24022
aI24023
aI24024
aI24025
aI24026
aI24027
aI24028
aI24029
aI24030
aI24031
aI24032
aI24033
aI24034
aI24035
aI24036
aI24037
aI24038
aI24039
aI24040
aI24041
aI24042
aI24043
aI24044
aI24045
aI24046
aI24047
aI24048
aI24049
aI24050
aI24051
aI24052
aI24053
aI24054
aI24055
aI24056
aI24057
aI24058
aI24059
aI24060
aI24061
aI24062
aI24063
aI24064
aI24065
aI24066
aI24067
aI24068
aI24069
aI24070
aI24071
aI24072
aI24073
aI24074
aI24075
aI24076
aI24077
aI24078
aI24079
aI24080
aI24081
aI24082
aI24083
aI24084
aI24085
aI24086
aI24087
aI24088
aI24089
aI24090
aI24091
aI24092
aI24093
aI24094
aI24095
aI24096
aI24097
aI24098
aI24099
aI24100
aI24101
aI24102
aI24103
aI24104
aI24105
aI24106
aI24107
aI24108
aI24109
aI24110
aI24111
aI24112
aI24113
aI24114
aI24115
aI24116
aI24117
aI24118
aI24119
aI24120
aI24121
aI24122
aI24123
aI24124
aI24125
aI24126
aI24127
aI24128
aI24129
aI24130
aI24131
aI24132
aI24133
aI24134
aI24135
aI24136
aI24137
aI24138
aI24139
aI24140
aI24141
aI24142
aI24143
aI24144
aI24145
aI24146
aI24147
aI24148
aI24149
aI24150
aI24151
aI24152
aI24153
aI24154
aI24155
aI24156
aI24157
aI24158
aI24159
aI24160
aI24161
aI24162
aI24163
aI24164
aI24165
aI24166
aI24167
aI24168
aI24169
aI24170
aI24171
aI24172
aI24173
aI24174
aI24175
aI24560
aI24561
aI24562
aI24563
aI24564
aI24565
aI24566
aI24567
aI24568
aI24569
aI24570
aI24571
aI24572
aI24573
aI24574
aI24575
aI24576
aI24577
aI24578
aI24579
aI24580
aI24581
aI24582
aI24583
aI24584
aI24585
aI24586
aI24587
aI24588
aI24589
aI24590
aI24591
aI24592
aI24593
aI24594
aI24595
aI24596
aI24597
aI24598
aI24599
aI24600
aI24601
aI24602
aI24603
aI24604
aI24605
aI24606
aI24607
aI24608
aI24609
aI24610
aI24611
aI24612
aI24613
aI24614
aI24615
aI24616
aI24617
aI24618
aI24619
aI24620
aI24621
aI24622
aI24623
aI24624
aI24625
aI24626
aI24627
aI24628
aI24629
aI24630
aI24631
aI24632
aI24633
aI24634
aI24635
aI24636
aI24637
aI24638
aI24639
aI24640
aI24641
aI24642
aI24643
aI24644
aI24645
aI24646
aI24647
aI24648
aI24649
aI24650
aI24651
aI24652
aI24653
aI24654
aI24655
aI24656
aI24657
aI24658
aI24659
aI24660
aI24661
aI24662
aI24663
aI24664
aI24665
aI24666
aI24667
aI24668
aI24669
aI24670
aI24671
aI24672
aI24673
aI24674
aI24675
aI24676
aI24677
aI24678
aI24679
aI24680
aI24681
aI24682
aI24683
aI24684
aI24685
aI24686
aI24687
aI24688
aI24689
aI24690
aI24691
aI24692
aI24693
aI24694
aI24695
aI24696
aI24697
aI24698
aI24699
aI24700
aI24701
aI24702
aI24703
aI24704
aI24705
aI24706
aI24707
aI24708
aI24709
aI24710
aI24711
aI24712
aI24713
aI24714
aI24715
aI24716
aI24717
aI24718
aI24719
aI24720
aI24721
aI24722
aI24723
aI24724
aI24725
aI24726
aI24727
aI24728
aI24729
aI24730
aI24731
aI24732
aI24733
aI24734
aI24735
aI24736
aI24737
aI24738
aI24739
aI24740
aI24741
aI24742
aI24743
aI24744
aI24745
aI24746
aI24747
aI24748
aI24749
aI24750
aI24751
aI24752
aI24753
aI24754
aI24755
aI24756
aI24757
aI24758
aI24759
aI24760
aI24761
aI24762
aI24763
aI24764
aI24765
aI24766
aI24767
aI24768
aI24769
aI24770
aI24771
aI24772
aI24773
aI24774
aI24775
aI24776
aI24777
aI24778
aI24779
aI24780
aI24781
aI24782
aI24783
aI24784
aI24785
aI24786
aI24787
aI24788
aI24789
aI24790
aI24791
aI24792
aI24793
aI24794
aI24795
aI24796
aI24797
aI24798
aI24799
aI24800
aI24801
aI24802
aI24803
aI24804
aI24805
aI24806
aI24807
aI24808
aI24809
aI24810
aI24811
aI24812
aI24813
aI24814
aI24815
aI24816
aI24817
aI24818
aI24819
aI24820
aI24821
aI24822
aI24823
aI24824
aI24825
aI24826
aI24827
aI24828
aI24829
aI24830
aI24831
aI24832
aI24833
aI24834
aI24835
aI24836
aI24837
aI24838
aI24839
aI24840
aI24841
aI24842
aI24843
aI24844
aI24845
aI24846
aI24847
aI24848
aI24849
aI24850
aI24851
aI24852
aI24853
aI24854
aI24855
aI24856
aI24857
aI24858
aI24859
aI24860
aI24861
aI24862
aI24863
aI24864
aI24865
aI24866
aI24867
aI24868
aI24869
aI24870
aI24871
aI24872
aI24873
aI24874
aI24875
aI24876
aI24877
aI24878
aI24879
aI24880
aI24881
aI24882
aI24883
aI24884
aI24885
aI24886
aI24887
aI24888
aI24889
aI24890
aI24891
aI24892
aI24893
aI24894
aI24895
aI24896
aI24897
aI24898
aI24899
aI24900
aI24901
aI24902
aI24903
aI24904
aI24905
aI24906
aI24907
aI24908
aI24909
aI24910
aI24911
aI24912
aI24913
aI24914
aI24915
aI24916
aI24917
aI24918
aI24919
aI24920
aI24921
aI24922
aI24923
aI24924
aI24925
aI24926
aI24927
aI24928
aI24929
aI24930
aI24931
aI24932
aI24933
aI24934
aI24935
aI24936
aI24937
aI24938
aI24939
aI24940
aI24941
aI24942
aI24943
aI24944
aI24945
aI24946
aI24947
aI24948
aI24949
aI24950
aI24951
aI24952
aI24953
aI24954
aI24955
aI24956
aI24957
aI24958
aI24959
aI24960
aI24961
aI24962
aI24963
aI24964
aI24965
aI24966
aI24967
aI24968
aI24969
aI24970
aI24971
aI24972
aI24973
aI24974
aI24975
aI24976
aI24977
aI24978
aI24979
aI24980
aI24981
aI24982
aI24983
aI24984
aI24985
aI24986
aI24987
aI24988
aI24989
aI24990
aI24991
aI24992
aI24993
aI24994
aI24995
aI24996
aI24997
aI24998
aI24999
aI25000
aI25001
aI25002
aI25003
aI25004
aI25005
aI25006
aI25007
aI25008
aI25009
aI25010
aI25011
aI25012
aI25013
aI25014
aI25015
aI25016
aI25017
aI25018
aI25019
aI25020
aI25021
aI25022
aI25023
aI25024
aI25025
aI25026
aI25027
aI25028
aI25029
aI25030
aI25031
aI25032
aI25033
aI25034
aI25035
aI25036
aI25037
aI25038
aI25039
aI25040
aI25041
aI25042
aI25043
aI25044
aI25045
aI25046
aI25047
aI25048
aI25049
aI25050
aI25051
aI25052
aI25053
aI25054
aI25055
aI25056
aI25057
aI25058
aI25059
aI25060
aI25061
aI25062
aI25063
aI25064
aI25065
aI25066
aI25067
aI25068
aI25069
aI25070
aI25071
aI25072
aI25073
aI25074
aI25075
aI25076
aI25077
aI25078
aI25079
aI25080
aI25081
aI25082
aI25083
aI25084
aI25085
aI25086
aI25087
aI25088
aI25089
aI25090
aI25091
aI25092
aI25093
aI25094
aI25095
aI25096
aI25097
aI25098
aI25099
aI25100
aI25101
aI25102
aI25103
aI25104
aI25105
aI25106
aI25107
aI25108
aI25109
aI25110
aI25111
aI25112
aI25113
aI25114
aI25115
aI25116
aI25117
aI25118
aI25119
aI25120
aI25121
aI25122
aI25123
aI25124
aI25125
aI25126
aI25127
aI25128
aI25129
aI25130
aI25131
aI25132
aI25133
aI25134
aI25135
aI25136
aI25137
aI25138
aI25139
aI25140
aI25141
aI25142
aI25143
aI25144
aI25145
aI25146
aI25147
aI25148
aI25149
aI25150
aI25151
aI25152
aI25153
aI25154
aI25155
aI25156
aI25157
aI25158
aI25159
aI25160
aI25161
aI25162
aI25163
aI25164
aI25165
aI25166
aI25167
aI25168
aI25169
aI25170
aI25171
aI25172
aI25173
aI25174
aI25175
aI25176
aI25177
aI25178
aI25179
aI25180
aI25181
aI25182
aI25183
aI25184
aI25185
aI25186
aI25187
aI25188
aI25189
aI25190
aI25191
aI25192
aI25193
aI25194
aI25195
aI25196
aI25197
aI25198
aI25199
aI25200
aI25201
aI25202
aI25203
aI25204
aI25205
aI25206
aI25207
aI25208
aI25209
aI25210
aI25211
aI25212
aI25213
aI25214
aI25215
aI25216
aI25217
aI25218
aI25219
aI25220
aI25221
aI25222
aI25223
aI25224
aI25225
aI25226
aI25227
aI25228
aI25229
aI25230
aI25231
aI25232
aI25233
aI25234
aI25235
aI25236
aI25237
aI25238
aI25239
aI25240
aI25241
aI25242
aI25243
aI25244
aI25245
aI25246
aI25247
aI25248
aI25249
aI25250
aI25251
aI25252
aI25253
aI25254
aI25255
aI25256
aI25257
aI25258
aI25259
aI25260
aI25261
aI25262
aI25263
aI25264
aI25265
aI25266
aI25267
aI25268
aI25269
aI25270
aI25271
aI25272
aI25273
aI25274
aI25275
aI25276
aI25277
aI25278
aI25279
aI25280
aI25281
aI25282
aI25283
aI25284
aI25285
aI25286
aI25287
aI25288
aI25289
aI25290
aI25291
aI25292
aI25293
aI25294
aI25295
aI25296
aI25297
aI25298
aI25299
aI25300
aI25301
aI25302
aI25303
aI25304
aI25305
aI25306
aI25307
aI25308
aI25309
aI25310
aI25311
aI25312
aI25313
aI25314
aI25315
aI25316
aI25317
aI25318
aI25319
aI25320
aI25321
aI25322
aI25323
aI25324
aI25325
aI25326
aI25327
aI25328
aI25329
aI25330
aI25331
aI25332
aI25333
aI25334
aI25335
aI25336
aI25337
aI25338
aI25339
aI25340
aI25341
aI25342
aI25343
aI25344
aI25345
aI25346
aI25347
aI25348
aI25349
aI25350
aI25351
aI25352
aI25353
aI25354
aI25355
aI25356
aI25357
aI25358
aI25359
aI25360
aI25361
aI25362
aI25363
aI25364
aI25365
aI25366
aI25367
aI25368
aI25369
aI25370
aI25371
aI25372
aI25373
aI25374
aI25375
aI25376
aI25377
aI25378
aI25379
aI25380
aI25381
aI25382
aI25383
aI25384
aI25385
aI25386
aI25387
aI25388
aI25389
aI25390
aI25391
aI25392
aI25393
aI25394
aI25395
aI25396
aI25397
aI25398
aI25399
aI25400
aI25401
aI25402
aI25403
aI25404
aI25405
aI25406
aI25407
aI25408
aI25409
aI25410
aI25411
aI25412
aI25413
aI25414
aI25415
aI25416
aI25417
aI25418
aI25419
aI25420
aI25421
aI25422
aI25423
aI25424
aI25425
aI25426
aI25427
aI25428
aI25429
aI25430
aI25431
aI25432
aI25433
aI25434
aI25435
aI25436
aI25437
aI25438
aI25439
aI25440
aI25441
aI25442
aI25443
aI25444
aI25445
aI25446
aI25447
aI25448
aI25449
aI25450
aI25451
aI25452
aI25453
aI25454
aI25455
aI25456
aI25457
aI25458
aI25459
aI25460
aI25461
aI25462
aI25463
aI25464
aI25465
aI25466
aI25467
aI25468
aI25469
aI25470
aI25471
aI25472
aI25473
aI25474
aI25475
aI25476
aI25477
aI25478
aI25479
aI25480
aI25481
aI25482
aI25483
aI25484
aI25485
aI25486
aI25487
aI25488
aI25489
aI25490
aI25491
aI25492
aI25493
aI25494
aI25495
aI25496
aI25497
aI25498
aI25499
aI25500
aI25501
aI25502
aI25503
aI25504
aI25505
aI25506
aI25507
aI25508
aI25509
aI25510
aI25511
aI25512
aI25513
aI25514
aI25515
aI25516
aI25517
aI25518
aI25519
aI25520
aI25521
aI25522
aI25523
aI25524
aI25525
aI25526
aI25527
aI25528
aI25529
aI25530
aI25531
aI25532
aI25533
aI25534
aI25535
aI25536
aI25537
aI25538
aI25539
aI25540
aI25541
aI25542
aI25543
aI25544
aI25545
aI25546
aI25547
aI25548
aI25549
aI25550
aI25551
aI25552
aI25553
aI25554
aI25555
aI25556
aI25557
aI25558
aI25559
aI25560
aI25561
aI25562
aI25563
aI25564
aI25565
aI25566
aI25567
aI25568
aI25569
aI25570
aI25571
aI25572
aI25573
aI25574
aI25575
aI25576
aI25577
aI25578
aI25579
aI25580
aI25581
aI25582
aI25583
aI25584
aI25585
aI25586
aI25587
aI25588
aI25589
aI25590
aI25591
aI25592
aI25593
aI25594
aI25595
aI25596
aI25597
aI25598
aI25599
aI25600
aI25601
aI25602
aI25603
aI25604
aI25605
aI25606
aI25607
aI25608
aI25609
aI25610
aI25611
aI25612
aI25613
aI25614
aI25615
aI25616
aI25617
aI25618
aI25619
aI25620
aI25621
aI25622
aI25623
aI25624
aI25625
aI25626
aI25627
aI25628
aI25629
aI25630
aI25631
aI25632
aI25633
aI25634
aI25635
aI25636
aI25637
aI25638
aI25639
aI25640
aI25641
aI25642
aI25643
aI25644
aI25645
aI25646
aI25647
aI25648
aI25649
aI25650
aI25651
aI25652
aI25653
aI25654
aI25655
aI25656
aI25657
aI25658
aI25659
aI25660
aI25661
aI25662
aI25663
aI25664
aI25665
aI25666
aI25667
aI25668
aI25669
aI25670
aI25671
aI25672
aI25673
aI25674
aI25675
aI25676
aI25677
aI25678
aI25679
aI25680
aI25681
aI25682
aI25683
aI25684
aI25685
aI25686
aI25687
aI25688
aI25689
aI25690
aI25691
aI25692
aI25693
aI25694
aI25695
aI25696
aI25697
aI25698
aI25699
aI25700
aI25701
aI25702
aI25703
aI25704
aI25705
aI25706
aI25707
aI25708
aI25709
aI25710
aI25711
aI25712
aI25713
aI25714
aI25715
aI25716
aI25717
aI25718
aI25719
aI25720
aI25721
aI25722
aI25723
aI25724
aI25725
aI25726
aI25727
aI25728
aI25729
aI25730
aI25731
aI25732
aI25733
aI25734
aI25735
aI25736
aI25737
aI25738
aI25739
aI25740
aI25741
aI25742
aI25743
aI25744
aI25745
aI25746
aI25747
aI25748
aI25749
aI25750
aI25751
aI25752
aI25753
aI25754
aI25755
aI25756
aI25757
aI25758
aI25759
aI25760
aI25761
aI25762
aI25763
aI25764
aI25765
aI25766
aI25767
aI25768
aI25769
aI25770
aI25771
aI25772
aI25773
aI25774
aI25775
aI25776
aI25777
aI25778
aI25779
aI25780
aI25781
aI25782
aI25783
aI25784
aI25785
aI25786
aI25787
aI25788
aI25789
aI25790
aI25791
aI25792
aI25793
aI25794
aI25795
aI25796
aI25797
aI25798
aI25799
aI25800
aI25801
aI25802
aI25803
aI25804
aI25805
aI25806
aI25807
aI25808
aI25809
aI25810
aI25811
aI25812
aI25813
aI25814
aI25815
aI25816
aI25817
aI25818
aI25819
aI25820
aI25821
aI25822
aI25823
aI25824
aI25825
aI25826
aI25827
aI25828
aI25829
aI25830
aI25831
aI25832
aI25833
aI25834
aI25835
aI25836
aI25837
aI25838
aI25839
aI25840
aI25841
aI25842
aI25843
aI25844
aI25845
aI25846
aI25847
aI25848
aI25849
aI25850
aI25851
aI25852
aI25853
aI25854
aI25855
aI25856
aI25857
aI25858
aI25859
aI25860
aI25861
aI25862
aI25863
aI25864
aI25865
aI25866
aI25867
aI25868
aI25869
aI25870
aI25871
aI25872
aI25873
aI25874
aI25875
aI25876
aI25877
aI25878
aI25879
aI25880
aI25881
aI25882
aI25883
aI25884
aI25885
aI25886
aI25887
aI25888
aI25889
aI25890
aI25891
aI25892
aI25893
aI25894
aI25895
aI25896
aI25897
aI25898
aI25899
aI25900
aI25901
aI25902
aI25903
aI25904
aI25905
aI25906
aI25907
aI25908
aI25909
aI25910
aI25911
aI25912
aI25913
aI25914
aI25915
aI25916
aI25917
aI25918
aI25919
aI25920
aI25921
aI25922
aI25923
aI25924
aI25925
aI25926
aI25927
aI25928
aI25929
aI25930
aI25931
aI25932
aI25933
aI25934
aI25935
aI25936
aI25937
aI25938
aI25939
aI25940
aI25941
aI25942
aI25943
aI25944
aI25945
aI25946
aI25947
aI25948
aI25949
aI25950
aI25951
aI25952
aI25953
aI25954
aI25955
aI25956
aI25957
aI25958
aI25959
aI25960
aI25961
aI25962
aI25963
aI25964
aI25965
aI25966
aI26127
aI26128
aI26129
aI26130
aI26131
aI26132
aI26133
aI26134
aI26135
aI26136
aI26137
aI26138
aI26139
aI26140
aI26141
aI26142
aI26143
aI26144
aI26145
aI26146
aI26147
aI26148
aI26149
aI26150
aI26151
aI26152
aI26153
aI26154
aI26155
aI26156
aI26157
aI26158
aI26159
aI26160
aI26161
aI26162
aI26163
aI26164
aI26165
aI26166
aI26167
aI26168
aI26169
aI26170
aI26171
aI26172
aI26173
aI26174
aI26175
aI26176
aI26177
aI26178
aI26179
aI26180
aI26181
aI26182
aI26183
aI26184
aI26185
aI26186
aI26187
aI26188
aI26189
aI26190
aI26191
aI26192
aI26193
aI26194
aI26195
aI26196
aI26197
aI26198
aI26199
aI26200
aI26201
aI26202
aI26203
aI26204
aI26205
aI26206
aI26207
aI26208
aI26209
aI26210
aI26211
aI26212
aI26213
aI26214
aI26215
aI26216
aI26217
aI26218
aI26219
aI26220
aI26221
aI26222
aI26223
aI26224
aI26225
aI26226
aI26227
aI26228
aI26229
aI26230
aI26231
aI26232
aI26233
aI26234
aI26235
aI26236
aI26237
aI26238
aI26239
aI26240
aI26241
aI26242
aI26243
aI26244
aI26245
aI26246
aI26247
aI26248
aI26249
aI26250
aI26251
aI26252
aI26253
aI26254
aI26255
aI26256
aI26257
aI26258
aI26259
aI26260
aI26261
aI26262
aI26263
aI26264
aI26265
aI26266
aI26267
aI26268
aI26269
aI26270
aI26271
aI26272
aI26273
aI26274
aI26275
aI26276
aI26277
aI26278
aI26279
aI26280
aI26281
aI26282
aI26283
aI26284
aI26285
aI26286
aI26287
aI26288
aI26289
aI26290
aI26291
aI26292
aI26293
aI26294
aI26295
aI26296
aI26297
aI26298
aI26299
aI26300
aI26301
aI26302
aI26303
aI26304
aI26305
aI26306
aI26307
aI26308
aI26309
aI26310
aI26311
aI26312
aI26313
aI26314
aI26315
aI26316
aI26317
aI26318
aI26319
aI26320
aI26321
aI26322
aI26323
aI26324
aI26325
aI26326
aI26327
aI26328
aI26329
aI26330
aI26331
aI26332
aI26333
aI26334
aI26335
aI26336
aI26337
aI26338
aI26339
aI26340
aI26341
aI26342
aI26343
aI26344
aI26345
aI26346
aI26347
aI26348
aI26349
aI26350
aI26351
aI26352
aI26353
aI26354
aI26355
aI26356
aI26357
aI26358
aI26359
aI26360
aI26361
aI26362
aI26363
aI26364
aI26365
aI26366
aI26367
aI26368
aI26369
aI26370
aI26371
aI26372
aI26373
aI26374
aI26375
aI26376
aI26377
aI26378
aI26379
aI26380
aI26381
aI26382
aI26383
aI26384
aI26385
aI26386
aI26387
aI26388
aI26389
aI26390
aI26391
aI26392
aI26393
aI26394
aI26395
aI26396
aI26397
aI26398
aI26399
aI26400
aI26401
aI26402
aI26403
aI26404
aI26405
aI26406
aI26407
aI26408
aI26409
aI26410
aI26411
aI26412
aI26413
aI26414
aI26415
aI26416
aI26417
aI26418
aI26419
aI26420
aI26421
aI26422
aI26423
aI26424
aI26425
aI26426
aI26427
aI26428
aI26429
aI26430
aI26431
aI26432
aI26433
aI26434
aI26435
aI26436
aI26437
aI26438
aI26439
aI26440
aI26441
aI26442
aI26443
aI26444
aI26445
aI26446
aI26447
aI26448
aI26449
aI26450
aI26451
aI26452
aI26453
aI26454
aI26455
aI26456
aI26457
aI26458
aI26459
aI26460
aI26461
aI26462
aI26463
aI26464
aI26465
aI26466
aI26467
aI26468
aI26469
aI26470
aI26471
aI26472
aI26473
aI26474
aI26475
aI26476
aI26477
aI26478
aI26479
aI26480
aI26481
aI26482
aI26483
aI26484
aI26485
aI26486
aI26487
aI26488
aI26489
aI26490
aI26491
aI26492
aI26493
aI26494
aI26495
aI26496
aI26497
aI26498
aI26499
aI26500
aI26501
aI26502
aI26503
aI26504
aI26505
aI26506
aI26507
aI26508
aI26509
aI26510
aI26511
aI26512
aI26513
aI26514
aI26515
aI26516
aI26517
aI26518
aI26519
aI26520
aI26521
aI26522
aI26523
aI26524
aI26525
aI26526
aI26527
aI26528
aI26529
aI26530
aI26531
aI26532
aI26533
aI26534
aI26535
aI26536
aI26537
aI26538
aI26539
aI26540
aI26541
aI26542
aI26543
aI26544
aI26545
aI26546
aI26547
aI26548
aI26549
aI26550
aI26551
aI26552
aI26553
aI26554
aI26555
aI26556
aI26557
aI26558
aI26559
aI26560
aI26561
aI26562
aI26563
aI26564
aI26565
aI26566
aI26567
aI26568
aI26569
aI26570
aI26571
aI26572
aI26573
aI26574
aI26575
aI26576
aI26577
aI26578
aI26579
aI26580
aI26581
aI26582
aI26583
aI26584
aI26585
aI26586
aI26587
aI26588
aI26589
aI26590
aI26591
aI26592
aI26593
aI26594
aI26595
aI26596
aI26597
aI26598
aI26599
aI26600
aI26601
aI26602
aI26603
aI26604
aI26605
aI26606
aI26607
aI26608
aI26609
aI26610
aI26611
aI26612
aI26613
aI26614
aI26615
aI26616
aI26617
aI26618
aI26619
aI26620
aI26621
aI26622
aI26623
aI26624
aI26625
aI26626
aI26627
aI26628
aI26629
aI26630
aI26631
aI26632
aI26633
aI26634
aI26635
aI26636
aI26637
aI26638
aI26639
aI26640
aI26641
aI26642
aI26643
aI26644
aI26645
aI26646
aI26647
aI26648
aI26649
aI26650
aI26651
aI26652
aI26653
aI26654
aI26655
aI26656
aI26657
aI26658
aI26659
aI26660
aI26661
aI26662
aI26663
aI26664
aI26665
aI26666
aI26667
aI26668
aI26669
aI26670
aI26671
aI26672
aI26673
aI26674
aI26675
aI26676
aI26677
aI26678
aI26679
aI26680
aI26681
aI26682
aI26683
aI26684
aI26685
aI26686
aI26687
aI26688
aI26689
aI26690
aI26691
aI26692
aI26693
aI26694
aI26695
aI26696
aI26697
aI26698
aI26699
aI26700
aI26701
aI26702
aI26703
aI26704
aI26705
aI26706
aI26707
aI26708
aI26709
aI26710
aI26711
aI26712
aI26713
aI26714
aI26715
aI26716
aI26717
aI26718
aI26719
aI26720
aI26721
aI26722
aI26723
aI26724
aI26725
aI26726
aI26727
aI26728
aI26729
aI26730
aI26731
aI26732
aI26733
aI26734
aI26735
aI26736
aI26737
aI26738
aI26739
aI26740
aI26741
aI26742
aI26743
aI26744
aI26745
aI26746
aI26747
aI26748
aI26749
aI26750
aI26751
aI26752
aI26753
aI26754
aI26755
aI26756
aI26757
aI26758
aI26759
aI26760
aI26761
aI26762
aI26763
aI26764
aI26765
aI26766
aI26767
aI26768
aI26769
aI26770
aI26771
aI26772
aI26773
aI26774
aI26775
aI26776
aI26777
aI26778
aI26779
aI26780
aI26781
aI26782
aI26783
aI26784
aI26785
aI26786
aI26787
aI26788
aI26789
aI26790
aI26791
aI26792
aI26793
aI26794
aI26795
aI26796
aI26797
aI26798
aI26799
aI26800
aI26801
aI26802
aI26803
aI26804
aI26805
aI26806
aI26807
aI26808
aI26809
aI26810
aI26811
aI26812
aI26813
aI26814
aI26815
aI26816
aI26817
aI26818
aI26819
aI26820
aI26821
aI26822
aI26823
aI26824
aI26825
aI26826
aI26827
aI26828
aI26829
aI26830
aI26831
aI26832
aI26833
aI26834
aI26835
aI26836
aI26837
aI26838
aI26839
aI26840
aI26841
aI26842
aI26843
aI26844
aI26845
aI26846
aI26847
aI26848
aI26849
aI26850
aI26851
aI26852
aI26853
aI26854
aI26855
aI26856
aI26857
aI26858
aI26859
aI26860
aI26861
aI26862
aI26863
aI26864
aI26865
aI26866
aI26867
aI26868
aI26869
aI26870
aI26871
aI26872
aI26873
aI26874
aI26875
aI26876
aI26877
aI26878
aI26879
aI26880
aI26881
aI26882
aI26883
aI26884
aI26885
aI26886
aI26887
aI26888
aI26889
aI26890
aI26891
aI26892
aI26893
aI26894
aI26895
aI26896
aI26897
aI26898
aI26899
aI26900
aI26901
aI26902
aI26903
aI26904
aI26905
aI26906
aI26907
aI26908
aI26909
aI26910
aI26911
aI26912
aI26913
aI26914
aI26915
aI26916
aI26917
aI26918
aI26919
aI26920
aI26921
aI26922
aI26923
aI26924
aI26925
aI26926
aI26927
aI26928
aI26929
aI26930
aI26931
aI26932
aI26933
aI26934
aI26935
aI26936
aI26937
aI26938
aI26939
aI26940
aI26941
aI26942
aI26943
aI26944
aI26945
aI26946
aI26947
aI26948
aI26949
aI26950
aI26951
aI26952
aI26953
aI26954
aI26955
aI26956
aI26957
aI26958
aI26959
aI26960
aI26961
aI26962
aI26963
aI26964
aI26965
aI26966
aI26967
aI26968
aI26969
aI26970
aI26971
aI26972
aI26973
aI26974
aI26975
aI26976
aI26977
aI26978
aI26979
aI26980
aI26981
aI26982
aI26983
aI26984
aI26985
aI26986
aI26987
aI26988
aI26989
aI26990
aI26991
aI26992
aI26993
aI26994
aI26995
aI26996
aI26997
aI26998
aI26999
aI27000
aI27001
aI27002
aI27003
aI27004
aI27005
aI27006
aI27007
aI27008
aI27009
aI27010
aI27011
aI27012
aI27013
aI27014
aI27015
aI27016
aI27017
aI27018
aI27019
aI27020
aI27021
aI27022
aI27023
aI27024
aI27025
aI27026
aI27027
aI27028
aI27029
aI27030
aI27031
aI27032
aI27033
aI27034
aI27035
aI27036
aI27037
aI27038
aI27039
aI27040
aI27041
aI27042
aI27043
aI27044
aI27045
aI27046
aI27047
aI27048
aI27049
aI27050
aI27051
aI27052
aI27053
aI27054
aI27055
aI27056
aI27057
aI27058
aI27059
aI27060
aI27061
aI27062
aI27063
aI27064
aI27065
aI27066
aI27067
aI27068
aI27069
aI27070
aI27071
aI27072
aI27073
aI27074
aI27075
aI27076
aI27077
aI27078
aI27079
aI27080
aI27081
aI27082
aI27083
aI27084
aI27085
aI27086
aI27087
aI27088
aI27089
aI27090
aI27091
aI27092
aI27093
aI27094
aI27095
aI27096
aI27097
aI27098
aI27099
aI27100
aI27101
aI27102
aI27103
aI27104
aI27105
aI27106
aI27107
aI27108
aI27109
aI27110
aI27111
aI27112
aI27113
aI27114
aI27115
aI27116
aI27117
aI27118
aI27119
aI27120
aI27121
aI27122
aI27123
aI27124
aI27125
aI27126
aI27127
aI27128
aI27129
aI27130
aI27131
aI27132
aI27133
aI27134
aI27135
aI27136
aI27137
aI27138
aI27139
aI27140
aI27141
aI27142
aI27143
aI27144
aI27145
aI27146
aI27147
aI27148
aI27149
aI27150
aI27151
aI27152
aI27153
aI27154
aI27155
aI27156
aI27157
aI27158
aI27159
aI27160
aI27161
aI27162
aI27163
aI27164
aI27165
aI27166
aI27167
aI27168
aI27169
aI27170
aI27171
aI27172
aI27173
aI27174
aI27175
aI27176
aI27177
aI27178
aI27179
aI27180
aI27181
aI27182
aI27183
aI27184
aI27185
aI27186
aI27187
aI27188
aI27189
aI27190
aI27191
aI27192
aI27193
aI27194
aI27195
aI27196
aI27197
aI27198
aI27199
aI27200
aI27201
aI27202
aI27203
aI27204
aI27205
aI27206
aI27207
aI27208
aI27209
aI27210
aI27211
aI27212
aI27213
aI27214
aI27215
aI27216
aI27217
aI27218
aI27219
aI27220
aI27221
aI27222
aI27223
aI27224
aI27225
aI27226
aI27227
aI27228
aI27229
aI27230
aI27231
aI27232
aI27233
aI27234
aI27235
aI27236
aI27237
aI27238
aI27239
aI27240
aI27241
aI27242
aI27243
aI27244
aI27245
aI27246
aI27247
aI27248
aI27249
aI27250
aI27251
aI27252
aI27253
aI27254
aI27255
aI27256
aI27257
aI27258
aI27259
aI27260
aI27261
aI27262
aI27263
aI27264
aI27265
aI27266
aI27267
aI27268
aI27269
aI27270
aI27271
aI27272
aI27273
aI27274
aI27275
aI27276
aI27277
aI27278
aI27279
aI27280
aI27281
aI27282
aI27283
aI27284
aI27285
aI27286
aI27287
aI27288
aI27289
aI27290
aI27291
aI27292
aI27293
aI27294
aI27295
aI27296
aI27297
aI27298
aI27299
aI27300
aI27301
aI27302
aI27303
aI27304
aI27305
aI27306
aI27307
aI27308
aI27309
aI27310
aI27311
aI27312
aI27313
aI27314
aI27315
aI27316
aI27317
aI27318
aI27319
aI27320
aI27321
aI27322
aI27323
aI27324
aI27325
aI27326
aI27327
aI27328
aI27329
aI27330
aI27331
aI27332
aI27333
aI27334
aI27335
aI27336
aI27337
aI27338
aI27339
aI27340
aI27341
aI27342
aI27343
aI27344
aI27345
aI27346
aI27347
aI27348
aI27349
aI27350
aI27351
aI27352
aI27353
aI27354
aI27355
aI27356
aI27357
aI27358
aI27359
aI27360
aI27361
aI27362
aI27363
aI27364
aI27365
aI27366
aI27367
aI27368
aI27369
aI27370
aI27371
aI27372
aI27373
aI27374
aI27375
aI27376
aI27377
aI27378
aI27379
aI27380
aI27381
aI27382
aI27383
aI27384
aI27385
aI27386
aI27387
aI27388
aI27389
aI27390
aI27391
aI27392
aI27393
aI27394
aI27395
aI27396
aI27397
aI27398
aI27399
aI27400
aI27401
aI27402
aI27403
aI27404
aI27405
aI27406
aI27407
aI27408
aI27409
aI27410
aI27411
aI27412
aI27413
aI27414
aI27415
aI27416
aI27417
aI27418
aI27419
aI27420
aI27421
aI27422
aI27423
aI27424
aI27425
aI27426
aI27427
aI27428
aI27429
aI27430
aI27431
aI27432
aI27433
aI27434
aI27435
aI27436
aI27437
aI27438
aI27439
aI27440
aI27441
aI27442
aI27443
aI27444
aI27445
aI27446
aI27447
aI27448
aI27449
aI27450
aI27451
aI27452
aI27453
aI27454
aI27455
aI27456
aI27457
aI27458
aI27459
aI27460
aI27461
aI27462
aI27463
aI27464
aI27465
aI27466
aI27467
aI27468
aI27469
aI27470
aI27471
aI27472
aI27473
aI27474
aI27475
aI27476
aI27477
aI27478
aI27479
aI27480
aI27481
aI27482
aI27483
aI27484
aI27485
aI27486
aI27487
aI27488
aI27489
aI27490
aI27491
aI27492
aI27493
aI27494
aI27495
aI27496
aI27497
aI27498
aI27499
aI27500
aI27501
aI27502
aI27503
aI27504
aI27505
aI27506
aI27507
aI27508
aI27509
aI27510
aI27511
aI27512
aI27513
aI27514
aI27515
aI27516
aI27517
aI27518
aI27519
aI27520
aI27521
aI27522
aI27523
aI27524
aI27525
aI27526
aI27527
aI27528
aI27529
aI27530
aI27531
aI27532
aI27533
aI27534
aI27535
aI27536
aI27537
aI27538
aI27539
aI27540
aI27541
aI27542
aI27543
aI27544
aI27545
aI27546
aI27547
aI27548
aI27549
aI27550
aI27551
aI27552
aI27553
aI27554
aI27555
aI27556
aI27557
aI27558
aI27559
aI27560
aI27561
aI27562
aI27563
aI27564
aI27565
aI27566
aI27567
aI27568
aI27569
aI27570
aI27571
aI27572
aI27573
aI27574
aI27575
aI27576
aI27577
aI27578
aI27579
aI27580
aI27581
aI27582
aI27583
aI27584
aI27585
aI27586
aI27587
aI27588
aI27589
aI27590
aI27591
aI27592
aI27593
aI27594
aI27595
aI27596
aI27597
aI27598
aI27599
aI27600
aI27601
aI27602
aI27603
aI27604
aI27605
aI27606
aI27607
aI27608
aI27609
aI27610
aI27611
aI27612
aI27613
aI27614
aI27615
aI27616
aI27617
aI27618
aI27619
aI27620
aI27621
aI27622
aI27623
aI27624
aI27625
aI27626
aI27627
aI27628
aI27629
aI27630
aI27631
aI27632
aI27633
aI27634
aI27635
aI27636
aI27637
aI27638
aI27639
aI27640
aI27641
aI27642
aI27643
aI27644
aI27645
aI27646
aI27647
aI27648
aI27649
aI27650
aI27651
aI27652
aI27653
aI27654
aI27655
aI27656
aI27657
aI27658
aI27659
aI27660
aI27661
aI27662
aI27663
aI27664
aI27665
aI27666
aI27667
aI27668
aI27669
aI27670
aI27671
aI27672
aI27673
aI27674
aI27675
aI27676
aI27677
aI27678
aI27679
aI27680
aI27681
aI27682
aI27683
aI27684
aI27685
aI27686
aI27687
aI27688
aI27689
aI27690
aI27691
aI27692
aI27693
aI27694
aI27695
aI27696
aI27697
aI27698
aI27699
aI27700
aI27701
aI27702
aI27703
aI27704
aI27705
aI27706
aI27707
aI27708
aI27709
aI27710
aI27711
aI27712
aI27713
aI27714
aI27715
aI27716
aI27717
aI27718
aI27719
aI27720
aI27721
aI27722
aI27723
aI27724
aI27725
aI27726
aI27727
aI27728
aI27729
aI27730
aI27731
aI27732
aI27733
aI27734
aI27735
aI27736
aI27737
aI27738
aI27739
aI27740
aI27741
aI27742
aI27743
aI27744
aI27745
aI27746
aI27747
aI27748
aI27749
aI27750
aI27751
aI27752
aI27753
aI27754
aI27755
aI27756
aI27757
aI27758
aI27759
aI27760
aI27761
aI27762
aI27763
aI27764
aI27765
aI27766
aI27767
aI27768
aI27769
aI27770
aI27771
aI27772
aI27773
aI27774
aI27775
aI27776
aI27777
aI27778
aI27779
aI27780
aI27781
aI27782
aI27783
aI27784
aI27785
aI27786
aI27787
aI27788
aI27789
aI27790
aI27791
aI27792
aI27793
aI27794
aI27795
aI27796
aI27797
aI27798
aI27799
aI27800
aI27801
aI27802
aI27803
aI27804
aI27805
aI27806
aI27807
aI27808
aI27809
aI27810
aI27811
aI27812
aI27813
aI27814
aI27815
aI27816
aI27817
aI27818
aI27819
aI27820
aI27821
aI27822
aI27823
aI27824
aI27825
aI27826
aI27827
aI27828
aI27829
aI27830
aI27831
aI27832
aI27833
aI27834
aI27835
aI27836
aI27837
aI27838
aI27839
aI27840
aI27841
aI27842
aI27843
aI27844
aI27845
aI27846
aI27847
aI27848
aI27849
aI27850
aI27851
aI27852
aI27853
aI27854
aI27855
aI27856
aI27857
aI27858
aI27859
aI27860
aI27861
aI27862
aI27863
aI27864
aI27865
aI27866
aI27867
aI27868
aI27869
aI27870
aI27871
aI27872
aI27873
aI27874
aI27875
aI27876
aI27877
aI27878
aI27879
aI27880
aI27881
aI27882
aI27883
aI27884
aI27885
aI27886
aI27887
aI27888
aI27889
aI27890
aI27891
aI27892
aI27893
aI27894
aI27895
aI27896
aI27897
aI27898
aI27899
aI27900
aI27901
aI27902
aI27903
aI27904
aI27905
aI27906
aI27907
aI27908
aI27909
aI27910
aI27911
aI27912
aI27913
aI27914
aI27915
aI27916
aI27917
aI27918
aI27919
aI27920
aI27921
aI27922
aI27923
aI27924
aI27925
aI27926
aI27927
aI27928
aI27929
aI27930
aI27931
aI27932
aI27933
aI27934
aI27935
aI27936
aI27937
aI27938
aI27939
aI27940
aI27941
aI27942
aI27943
aI27944
aI27945
aI27946
aI27947
aI27948
aI27949
aI27950
aI27951
aI27952
aI27953
aI27954
aI27955
aI27956
aI27957
aI27958
aI27959
aI27960
aI27961
aI27962
aI27963
aI27964
aI27965
aI27966
aI27967
aI27968
aI27969
aI27970
aI27971
aI27972
aI27973
aI27974
aI27975
aI27976
aI27977
aI27978
aI27979
aI27980
aI27981
aI27982
aI27983
aI27984
aI27985
aI27986
aI27987
aI27988
aI27989
aI27990
aI27991
aI27992
aI27993
aI27994
aI27995
aI27996
aI27997
aI27998
aI27999
aI28000
aI28001
aI28002
aI28003
aI28004
aI28005
aI28006
aI28007
aI28008
aI28009
aI28010
aI28011
aI28012
aI28013
aI28014
aI28015
aI28016
aI28017
aI28018
aI28019
aI28020
aI28021
aI28022
aI28023
aI28024
aI28025
aI28026
aI28027
aI28028
aI28029
aI28030
aI28031
aI28032
aI28033
aI28034
aI28035
aI28036
aI28037
aI28038
aI35665
aI35668
aI35676
aI35677
aI35678
aI35680
aI35681
aI35682
aI35684
aI35685
aI35686
aI35696
aI35697
aI35698
aI35700
aI35701
aI35702
aI35703
aI35704
aI35705
aI35706
aI35707
aI35708
aI35709
aI35710
aI35711
aI35712
aI35713
aI35714
aI35715
aI35716
aI35717
aI35718
aI35719
aI35720
aI35721
aI35722
aI35723
aI35724
aI35725
aI35726
aI35727
aI35728
aI35729
aI35730
aI35731
aI35732
aI35733
aI35734
aI35735
aI35736
aI35737
aI35738
aI35739
aI35740
aI35741
aI35742
aI35743
aI35744
aI35745
aI35746
aI35747
aI35748
aI35749
aI35750
aI35751
aI35752
aI35753
aI35754
aI35755
aI35756
aI35757
aI35758
aI35759
aI35760
aI35761
aI35762
aI35763
aI35764
aI35765
aI35766
aI35767
aI35768
aI35769
aI35770
aI35771
aI35772
aI35773
aI35774
aI35775
aI35776
aI35777
aI35778
aI35779
aI35780
aI35781
aI35782
aI35783
aI35784
aI35785
aI35786
aI35787
aI35788
aI35789
aI35790
aI35791
aI35792
aI35793
aI35794
aI35795
aI35796
aI35797
aI35798
aI35799
aI35800
aI35801
aI35802
aI35803
aI35804
aI35805
aI35806
aI35807
aI35808
aI35809
aI35810
aI35811
aI35812
aI35813
aI35814
aI35815
aI35816
aI35817
aI35818
aI35819
aI35820
aI35821
aI35822
aI35823
aI35824
aI35825
aI35826
aI35827
aI35828
aI35829
aI35830
aI35831
aI35832
aI35833
aI35834
aI35835
aI35836
aI35837
aI35838
aI35839
aI35840
aI35841
aI35842
aI35843
aI35844
aI35845
aI35846
aI35847
aI35848
aI35849
aI35850
aI35851
aI35852
aI35853
aI35854
aI35855
aI35856
aI35857
aI35858
aI35859
aI35860
aI35861
aI35862
aI35863
aI35864
aI35865
aI35866
aI35867
aI35868
aI35869
aI35870
aI35871
aI35872
aI35873
aI35874
aI35875
aI35876
aI35877
aI35878
aI35879
aI35880
aI35881
aI35882
aI35883
aI35884
aI35885
aI35886
aI35887
aI35888
aI35889
aI35890
aI35891
aI35892
aI35893
aI35894
aI35895
aI35896
aI35897
aI35898
aI35899
aI35900
aI35901
aI35902
aI35903
aI35904
aI35905
aI35906
aI35907
aI35908
aI35909
aI35910
aI35911
aI35912
aI35913
aI35914
aI35915
aI35916
aI35917
aI35918
aI35919
aI35920
aI35921
aI35922
aI35923
aI35924
aI35925
aI35926
aI35927
aI35928
aI35929
aI35930
aI35931
aI35932
aI35933
aI35934
aI35935
aI35936
aI35937
aI35938
aI35939
aI35940
aI35941
aI35942
aI35943
aI35944
aI35945
aI35946
aI35947
aI35948
aI35949
aI35950
aI35951
aI35952
aI35953
aI35954
aI35955
aI35956
aI35957
aI35958
aI35959
aI35960
aI35961
aI35962
aI35963
aI35964
aI35965
aI35966
aI35967
aI35968
aI35969
aI35970
aI35971
aI35972
aI35973
aI35974
aI35975
aI35976
aI35977
aI35978
aI35979
aI35980
aI35981
aI35982
aI35983
aI35984
aI35985
aI35986
aI35987
aI35988
aI35989
aI35990
aI35991
aI35992
aI35993
aI35994
aI35995
aI35996
aI35997
aI35998
aI35999
aI36000
aI36001
aI36002
aI36003
aI36004
aI36005
aI36006
aI36007
aI36008
aI36009
aI36010
aI36011
aI36012
aI36013
aI36014
aI36015
aI36016
aI36017
aI36018
aI36019
aI36020
aI36021
aI36022
aI36023
aI36024
aI36025
aI36026
aI36027
aI36028
aI36029
aI36030
aI36031
aI36032
aI36033
aI36034
aI36035
aI36036
aI36037
aI36038
aI36039
aI36040
aI36041
aI36042
aI36043
aI36044
aI36045
aI36046
aI36047
aI36048
aI36049
aI36050
aI36051
aI36052
aI36053
aI36054
aI36055
aI36056
aI36057
aI36058
aI36059
aI36060
aI36061
aI36062
aI36063
aI36064
aI36065
aI36066
aI36067
aI36068
aI36069
aI36070
aI36071
aI36072
aI36073
aI36074
aI36075
aI36076
aI36077
aI36078
aI36079
aI36080
aI36081
aI36082
aI36083
aI36084
aI36085
aI36086
aI36087
aI36088
aI36089
aI36090
aI36091
aI36092
aI36093
aI36094
aI36095
aI36096
aI36097
aI36098
aI36099
aI36100
aI36101
aI36102
aI36103
aI36104
aI36105
aI36106
aI36107
aI36108
aI36109
aI36110
aI36111
aI36112
aI36113
aI36114
aI36115
aI36116
aI36117
aI36118
aI36119
aI36120
aI36121
aI36122
aI36123
aI36124
aI36125
aI36126
aI36127
aI36128
aI36129
aI36130
aI36131
aI36132
aI36133
aI36134
aI36135
aI36136
aI36137
aI36138
aI36139
aI36140
aI36141
aI36142
aI36143
aI36144
aI36145
aI36146
aI36147
aI36148
aI36149
aI36150
aI36151
aI36152
aI36153
aI36154
aI36155
aI36156
aI36157
aI36158
aI36159
aI36160
aI36161
aI36162
aI36163
aI36164
aI36165
aI36166
aI36167
aI36168
aI36169
aI36170
aI36171
aI36172
aI36173
aI36174
aI36175
aI36176
aI36177
aI36178
aI36179
aI36180
aI36181
aI36182
aI36183
aI36184
aI36185
aI36186
aI36187
aI36188
aI36189
aI36190
aI36191
aI36192
aI36193
aI36194
aI36195
aI36196
aI36197
aI36198
aI36199
aI36200
aI36201
aI36202
aI36203
aI36204
aI36205
aI36206
aI36207
aI36208
aI36209
aI36210
aI36211
aI36212
aI36213
aI36214
aI36215
aI36216
aI36217
aI36218
aI36219
aI36220
aI36221
aI36222
aI36223
aI36224
aI36225
aI36226
aI36227
aI36228
aI36229
aI36230
aI36231
aI36232
aI36233
aI36234
aI36235
aI36236
aI36237
aI36238
aI36239
aI36240
aI36241
aI36242
aI36243
aI36244
aI36245
aI36246
aI36247
aI36248
aI36249
aI36250
aI36251
aI36252
aI36253
aI36254
aI36255
aI36256
aI36257
aI36258
aI36259
aI36260
aI36261
aI36262
aI36263
aI36264
aI36265
aI36266
aI36267
aI36268
aI36269
aI36270
aI36271
aI36272
aI36273
aI36274
aI36275
aI36276
aI36277
aI36278
aI36279
aI36280
aI36281
aI36282
aI36283
aI36284
aI36285
aI36286
aI36287
aI36288
aI36289
aI36290
aI36291
aI36292
aI36293
aI36294
aI36295
aI36296
aI36297
aI36298
aI36299
aI36300
aI36301
aI36302
aI36303
aI36304
aI36305
aI36306
aI36307
aI36308
aI36309
aI36310
aI36311
aI36312
aI36313
aI36314
aI36315
aI36316
aI36317
aI36318
aI36319
aI36320
aI36321
aI36322
aI36323
aI36324
aI36325
aI36326
aI36327
aI36328
aI36329
aI36330
aI36331
aI36332
aI36333
aI36334
aI36335
aI36336
aI36337
aI36338
aI36339
aI36340
aI36341
aI36342
aI36343
aI36344
aI36345
aI36346
aI36347
aI36348
aI36349
aI36350
aI36351
aI36352
aI36353
aI36354
aI36355
aI36356
aI36357
aI36358
aI36359
aI36360
aI36361
aI36362
aI36363
aI36364
aI36365
aI36366
aI36367
aI36368
aI36369
aI36370
aI36371
aI36372
aI36373
aI36374
aI36375
aI36376
aI36377
aI36378
aI36379
aI36380
aI36381
aI36382
aI36383
aI36384
aI36385
aI36386
aI36387
aI36388
aI36389
aI36390
aI36391
aI36392
aI36393
aI36394
aI36395
aI36396
aI36397
aI36398
aI36399
aI36400
aI36401
aI36402
aI36403
aI36404
aI36405
aI36406
aI36407
aI36408
aI36409
aI36410
aI36411
aI36412
aI36413
aI36414
aI36415
aI36416
aI36417
aI36418
aI36419
aI36420
aI36421
aI36422
aI36423
aI36424
aI36425
aI36426
aI36427
aI36428
aI36429
aI36430
aI36431
aI36432
aI36433
aI36434
aI36435
aI36436
aI36437
aI36438
aI36439
aI36440
aI36441
aI36442
aI36443
aI36444
aI36445
aI36446
aI36447
aI36448
aI36449
aI36450
aI36451
aI36452
aI36453
aI36454
aI36455
aI36456
aI36457
aI36458
aI36459
aI36460
aI36461
aI36462
aI36463
aI36464
aI36465
aI36466
aI36467
aI36468
aI36469
aI36470
aI36471
aI36472
aI36473
aI36474
aI36475
aI36476
aI36477
aI36478
aI36479
aI36480
aI36481
aI36482
aI36483
aI36484
aI36485
aI36486
aI36487
aI36488
aI36489
aI36490
aI36491
aI36492
aI36493
aI36494
aI36495
aI36496
aI36497
aI36498
aI36499
aI36500
aI36501
aI36502
aI36503
aI36504
aI36505
aI36506
aI36507
aI36508
aI36509
aI36510
aI36511
aI36512
aI36513
aI36514
aI36515
aI36516
aI36517
aI36518
aI36519
aI36520
aI36521
aI36522
aI36523
aI36524
aI36525
aI36526
aI36527
aI36528
aI36529
aI36530
aI36531
aI36532
aI36533
aI36534
aI36535
aI36536
aI36537
aI36538
aI36539
aI36540
aI36541
aI36542
aI36543
aI36544
aI36545
aI36546
aI36547
aI36548
aI36549
aI36550
aI36551
aI36552
aI36553
aI36554
aI36555
aI36556
aI36557
aI36558
aI36559
aI36560
aI36561
aI36562
aI36563
aI36564
aI36565
aI36566
aI36567
aI36568
aI36569
aI36570
aI36571
aI36572
aI36573
aI36574
aI36575
aI36576
aI36577
aI36578
aI36579
aI36580
aI36581
aI36582
aI36583
aI36584
aI36585
aI36586
aI36587
aI36588
aI36589
aI36590
aI36591
aI36592
aI36593
aI36594
aI36595
aI36596
aI36597
aI36598
aI36599
aI36600
aI36601
aI36602
aI36603
aI36604
aI36605
aI36606
aI36607
aI36608
aI36609
aI36610
aI36611
aI36612
aI36613
aI36614
aI36615
aI36616
aI36617
aI36618
aI36619
aI36620
aI36621
aI36622
aI36623
aI36624
aI36625
aI36626
aI36627
aI36628
aI36629
aI36630
aI36631
aI36632
aI36633
aI36634
aI36635
aI36636
aI36637
aI36638
aI36639
aI36640
aI36641
aI36642
aI36643
aI36644
aI36645
aI36646
aI36647
aI36648
aI36649
aI36650
aI36651
aI36652
aI36653
aI36654
aI36655
aI36656
aI36657
aI36658
aI36659
aI36660
aI36661
aI36662
aI36663
aI36664
aI36665
aI36666
aI36667
aI36668
aI36669
aI36670
aI36671
aI36672
aI36673
aI36674
aI36675
aI36676
aI36677
aI36678
aI36679
aI36680
aI36681
aI36682
aI36683
aI36684
aI36685
aI36686
aI36687
aI36688
aI36689
aI36690
aI36691
aI36692
aI36693
aI36694
aI36695
aI36696
aI36697
aI36698
aI36699
aI36700
aI36701
aI36702
aI36703
aI36704
aI36705
aI36706
aI36707
aI36708
aI36709
aI36710
aI36711
aI36712
aI36713
aI36714
aI36715
aI36716
aI36717
aI36718
aI36719
aI36720
aI36721
aI36722
aI36723
aI36724
aI36725
aI36726
aI36727
aI36728
aI36729
aI36730
aI36731
aI36732
aI36733
aI36734
aI36735
aI36736
aI36737
aI36738
aI36739
aI36740
aI36741
aI36742
aI36743
aI36744
aI36745
aI36746
aI36747
aI36748
aI36749
aI36750
aI36751
aI36752
aI36753
aI36754
aI36755
aI36756
aI36757
aI36758
aI36759
aI36760
aI36761
aI36762
aI36763
aI36764
aI36765
aI36766
aI36767
aI36768
aI36769
aI36770
aI36771
aI36772
aI36773
aI36774
aI36775
aI36776
aI36777
aI36778
aI36779
aI36780
aI36781
aI36782
aI36783
aI36784
aI36785
aI36786
aI36787
aI36788
aI36789
aI36790
aI36791
aI36792
aI36793
aI36794
aI36795
aI36796
aI36797
aI36798
aI36799
aI36800
aI36801
aI36802
aI36803
aI36804
aI36805
aI36806
aI36807
aI36808
aI36809
aI36810
aI36811
aI36812
aI36813
aI36814
aI36815
aI36816
aI36817
aI36818
aI36819
aI36820
aI36821
aI36822
aI36823
aI36824
aI36825
aI36826
aI36827
aI36828
aI36829
aI36830
aI36831
aI36832
aI36833
aI36834
aI36835
aI36836
aI36837
aI36838
aI36839
aI36840
aI36841
aI36842
aI36843
aI36844
aI36845
aI36846
aI36847
aI36848
aI36849
aI36850
aI36851
aI36852
aI36853
aI36854
aI36855
aI36856
aI36857
aI36858
aI36859
aI36860
aI36861
aI36862
aI36863
aI36864
aI36865
aI36866
aI36867
aI36868
aI36869
aI36870
aI36871
aI36872
aI36873
aI36874
aI36875
aI36876
aI36877
aI36878
aI36879
aI36880
aI36881
aI36882
aI36883
aI36884
aI36885
aI36886
aI36887
aI36888
aI36889
aI36890
aI36891
aI36892
aI36893
aI36894
aI36895
aI36896
aI36897
aI36898
aI36899
aI36900
aI36901
aI36902
aI36903
aI36904
aI36905
aI36906
aI36907
aI36908
aI36909
aI36910
aI36911
aI36912
aI36913
aI36914
aI36915
aI36916
aI36917
aI36918
aI36919
aI36920
aI36921
aI36922
aI36923
aI36924
aI36925
aI36926
aI36927
aI36928
aI36929
aI36930
aI36931
aI36932
aI36933
aI36934
aI36935
aI36936
aI36937
aI36938
aI36939
aI36940
aI36941
aI36942
aI36943
aI36944
aI36945
aI36946
aI36947
aI36948
aI36949
aI36950
aI36951
aI36952
aI36953
aI36954
aI36955
aI36956
aI36957
aI36958
aI36959
aI36960
aI36961
aI36962
aI36963
aI36964
aI36965
aI36966
aI36967
aI36968
aI36969
aI36970
aI36971
aI36972
aI36973
aI36974
aI36975
aI36976
aI36977
aI36978
aI36979
aI36980
aI36981
aI36982
aI36983
aI36984
aI36985
aI36986
aI36987
aI36988
aI36989
aI36990
aI36991
aI36992
aI36993
aI36994
aI36995
aI36996
aI36997
aI36998
aI36999
aI37000
aI37001
aI37002
aI37003
aI37004
aI37005
aI37006
aI37007
aI37008
aI37009
aI37010
aI37011
aI37012
aI37013
aI37014
aI37015
aI37016
aI37017
aI37018
aI37019
aI37020
aI37021
aI37022
aI37023
aI37024
aI37025
aI37026
aI37027
aI37028
aI37029
aI37030
aI37031
aI37032
aI37033
aI37034
aI37035
aI37036
aI37037
aI37038
aI37039
aI37040
aI37041
aI37042
aI37043
aI37044
aI37045
aI37046
aI37047
aI37048
aI37049
aI37050
aI37051
aI37052
aI37053
aI37054
aI37055
aI37056
aI37057
aI37058
aI37059
aI37060
aI37061
aI37062
aI37063
aI37064
aI37065
aI37066
aI37067
aI37068
aI37069
aI37070
aI37071
aI37072
aI37073
aI37074
aI37075
aI37076
aI37077
aI37078
aI37079
aI37080
aI37081
aI37082
aI37083
aI37084
aI37085
aI37086
aI37087
aI37088
aI37089
aI37090
aI37091
aI37092
aI37093
aI37094
aI37095
aI37096
aI37097
aI37098
aI37099
aI37100
aI37101
aI37102
aI37103
aI37104
aI37105
aI37106
aI37107
aI37108
aI37109
aI37110
aI37111
aI37112
aI37113
aI37114
aI37115
aI37116
aI37117
aI37118
aI37119
aI37120
aI37121
aI37122
aI37123
aI37124
aI37125
aI37126
aI37127
aI37128
aI37129
aI37130
aI37131
aI37132
aI37133
aI37134
aI37135
aI37136
aI37137
aI37138
aI37139
aI37140
aI37141
aI37142
aI37143
aI37144
aI37145
aI37146
aI37147
aI37148
aI37149
aI37150
aI37151
aI37152
aI37153
aI37154
aI37155
aI37156
aI37157
aI37158
aI37159
aI37160
aI37161
aI37162
aI37163
aI37164
aI37165
aI37166
aI37167
aI37168
aI37169
aI37170
aI37171
aI37172
aI37173
aI37174
aI37175
aI37176
aI37177
aI37178
aI37179
aI37180
aI37181
aI37182
aI37183
aI37184
aI37185
aI37186
aI37187
aI37188
aI37189
aI37190
aI37191
aI37192
aI37193
aI37194
aI37195
aI37196
aI37197
aI37198
aI37199
aI37200
aI37201
aI37202
aI37203
aI37204
aI37205
aI37206
aI37207
aI37208
aI37209
aI37210
aI37211
aI37212
aI37213
aI37214
aI37215
aI37216
aI37217
aI37218
aI37219
aI37220
aI37221
aI37222
aI37223
aI37224
aI37225
aI37226
aI37227
aI37228
aI37229
aI37230
aI37231
aI37232
aI37233
aI37234
aI37235
aI37236
aI37237
aI37238
aI37239
aI37240
aI37241
aI37242
aI37243
aI37244
aI37245
aI37246
aI37247
aI37248
aI37249
aI37250
aI37251
aI37252
aI37253
aI37254
aI37255
aI37256
aI37257
aI37258
aI37259
aI37260
aI37261
aI37262
aI37263
aI37264
aI37265
aI37266
aI37267
aI37268
aI37269
aI37270
aI37271
aI37272
aI37273
aI37274
aI37275
aI37276
aI37277
aI37278
aI37279
aI37280
aI37281
aI37282
aI37283
aI37284
aI37285
aI37286
aI37287
aI37288
aI37289
aI37290
aI37291
aI37292
aI37293
aI37294
aI37295
aI37296
aI37297
aI37298
aI37299
aI37300
aI37301
aI37302
aI37303
aI37304
aI37305
aI37306
aI37307
aI37308
aI37309
aI37310
aI37311
aI37312
aI37313
aI37314
aI37315
aI37316
aI37317
aI37318
aI37319
aI37320
aI37321
aI37322
aI37323
aI37324
aI37325
aI37326
aI37327
aI37328
aI37329
aI37330
aI37331
aI37332
aI37333
aI37334
aI37335
aI37336
aI37337
aI37338
aI37339
aI37340
aI37341
aI37342
aI37343
aI37344
aI37345
aI37346
aI37347
aI37348
aI37349
aI37350
aI37351
aI37352
aI37353
aI37354
aI37355
aI37356
aI37357
aI37358
aI37359
aI37360
aI37361
aI37362
aI37363
aI37364
aI37365
aI37366
aI37367
aI37368
aI37369
aI37370
aI37371
aI37372
aI37373
aI37374
aI37375
aI37376
aI37377
aI37378
aI37379
aI37380
aI37381
aI37382
aI37383
aI37384
aI37385
aI37386
aI37387
aI37388
aI37389
aI37390
aI37391
aI37392
aI37393
aI37394
aI37395
aI37396
aI37397
aI37398
aI37399
aI37400
aI37401
aI37402
aI37403
aI37404
aI37405
aI37406
aI37407
aI37408
aI37409
aI37410
aI37411
aI37412
aI37413
aI37414
aI37415
aI37416
aI37417
aI37418
aI37419
aI37420
aI37421
aI37422
aI37423
aI37424
aI37425
aI37426
aI37427
aI37428
aI37429
aI37430
aI37431
aI37432
aI37433
aI37434
aI37435
aI37436
aI37437
aI37438
aI37439
aI37440
aI37441
aI37442
aI37443
aI37444
aI37445
aI37446
aI37447
aI37448
aI37449
aI37450
aI37451
aI37452
aI37453
aI37454
aI37455
aI37456
aI37457
aI37458
aI37459
aI37460
aI37461
aI37462
aI37463
aI37464
aI37465
aI37466
aI37467
aI37468
aI37469
aI37470
aI37471
aI37472
aI37473
aI37474
aI37475
aI37476
aI37477
aI37478
aI37479
aI37480
aI37481
aI37482
aI37483
aI37484
aI37485
aI37486
aI37487
aI37488
aI37489
aI37490
aI37491
aI37492
aI37493
aI37494
aI37495
aI37496
aI37497
aI37498
aI37499
aI37500
aI37501
aI37502
aI37503
aI37504
aI37505
aI37506
aI37507
aI37508
aI37509
aI37510
aI37511
aI37512
aI37513
aI37514
aI37515
aI37516
aI37517
aI37518
aI37519
aI37520
aI37521
aI37522
aI37523
aI37524
aI37525
aI37526
aI37527
aI37528
aI37529
aI37530
aI37531
aI37532
aI37533
aI37534
aI37535
aI37536
aI37537
aI37538
aI37539
aI37540
aI37541
aI37542
aI37543
aI37544
aI37545
aI37546
aI37547
aI37548
aI37549
aI37550
aI37551
aI37552
aI37553
aI37554
aI37555
aI37556
aI37557
aI37558
aI37559
aI37560
aI37561
aI37562
aI37563
aI37564
aI37565
aI37566
aI37567
aI37568
aI37569
aI37570
aI37571
aI37572
aI37573
aI37574
aI37575
aI37576
aI37577
aI37578
aI37579
aI37580
aI37581
aI37582
aI37583
aI37584
aI37585
aI37586
aI37587
aI37588
aI37589
aI37590
aI37591
aI37592
aI37593
aI37594
aI37595
aI37596
aI37597
aI37598
aI37599
aI37600
aI37601
aI37602
aI37603
aI37604
aI37605
aI37606
aI37607
aI37608
aI37609
aI37610
aI37611
aI37612
aI37613
aI37614
aI37615
aI37616
aI37617
aI37618
aI37619
aI37620
aI37621
aI37622
aI37623
aI37624
aI37625
aI37626
aI37627
aI37628
aI37629
aI37630
aI37631
aI37632
aI37633
aI37634
aI37635
aI37636
aI37637
aI37638
aI37639
aI37640
aI37641
aI37642
aI37643
aI37644
aI37645
aI37646
aI37647
aI37648
aI37649
aI37650
aI37651
aI37652
aI37653
aI37654
aI37655
aI37656
aI37657
aI37658
aI37659
aI37660
aI37661
aI37662
aI37663
aI37664
aI37665
aI37666
aI37667
aI37668
aI37669
aI37670
aI37671
aI37672
aI37673
aI37674
aI37675
aI37676
aI37677
aI37678
aI37679
aI37680
aI37681
aI37682
aI37683
aI37684
aI37685
aI37686
aI37687
aI37688
aI37689
aI37690
aI37691
aI37692
aI37693
aI37694
aI37695
aI37696
aI37697
aI37698
aI37699
aI37700
aI37701
aI37702
aI37703
aI37704
aI37705
aI37706
aI37707
aI37708
aI37709
aI37710
aI37711
aI37712
aI37713
aI37714
aI37715
aI37716
aI37717
aI37718
aI37719
aI37720
aI37721
aI37722
aI37723
aI37724
aI37725
aI37726
aI37727
aI37728
aI37729
aI37730
aI37731
aI37732
aI37733
aI37734
aI37735
aI37736
aI37737
aI37738
aI37739
aI37740
aI37741
aI37742
aI37743
aI37744
aI37745
aI37746
aI37747
aI37748
aI37749
aI37750
aI37751
aI37752
aI37753
aI37754
aI37755
aI37756
aI37757
aI37758
aI37759
aI37760
aI37761
aI37762
aI37763
aI37764
aI37765
aI37766
aI37767
aI37768
aI37769
aI37770
aI37771
aI37772
aI37773
aI37774
aI37775
aI37776
aI37777
aI37778
aI37779
aI37780
aI37781
aI37782
aI37783
aI37784
aI37785
aI37786
aI37787
aI37788
aI37789
aI37790
aI37791
aI37792
aI37793
aI37794
aI37795
aI37796
aI37797
aI37798
aI37799
aI37800
aI37801
aI37802
aI37803
aI37804
aI37805
aI37806
aI37807
aI37808
aI37809
aI37810
aI37811
aI37812
aI37813
aI37814
aI37815
aI37816
aI37817
aI37818
aI37819
aI37820
aI37821
aI37822
aI37823
aI37824
aI37825
aI37826
aI37827
aI37828
aI37829
aI37830
aI37831
aI37832
aI37833
aI37834
aI37835
aI37836
aI37837
aI37838
aI37839
aI37840
aI37841
aI37842
aI37843
aI37844
aI37845
aI37846
aI37847
aI37848
aI37849
aI37850
aI37851
aI37852
aI37853
aI37854
aI37855
aI37856
aI37857
aI37858
aI37859
aI37860
aI37861
aI37862
aI37863
aI37864
aI37865
aI37866
aI37867
aI37868
aI37869
aI37870
aI37871
aI37872
aI37873
aI37874
aI37875
aI37876
aI37877
aI37878
aI37879
aI37880
aI37881
aI37882
aI37883
aI37884
aI37885
aI37886
aI37887
aI37888
aI37889
aI37890
aI37891
aI37892
aI37893
aI37894
aI37895
aI37896
aI37897
aI37898
aI37899
aI37900
aI37901
aI37902
aI37903
aI37904
aI37905
aI37906
aI37907
aI37908
aI37909
aI37910
aI37911
aI37912
aI37913
aI37914
aI37915
aI37916
aI37917
aI37918
aI37919
aI37920
aI37921
aI37922
aI37923
aI37924
aI37925
aI37926
aI37927
aI37928
aI37929
aI37930
aI37931
aI37932
aI37933
aI37934
aI37935
aI37936
aI37937
aI37938
aI37939
aI37940
aI37941
aI37942
aI37943
aI37944
aI37945
aI37946
aI37947
aI37948
aI37949
aI37950
aI37951
aI37952
aI37953
aI37954
aI37955
aI37956
aI37957
aI37958
aI37959
aI37960
aI37961
aI37962
aI37963
aI37964
aI37965
aI37966
aI37967
aI37968
aI37969
aI37970
aI37971
aI37972
aI37973
aI37974
aI37975
aI37976
aI37977
aI37978
aI37979
aI37980
aI37981
aI37982
aI37983
aI37984
aI37985
aI37986
aI37987
aI37988
aI37989
aI37990
aI37991
aI37992
aI37993
aI37994
aI37995
aI37996
aI37997
aI37998
aI37999
aI38000
aI38001
aI38002
aI38003
aI38004
aI38005
aI38006
aI38007
aI38008
aI38009
aI38010
aI38011
aI38012
aI38013
aI38014
aI38015
aI38016
aI38017
aI38018
aI38019
aI38020
aI38021
aI38022
aI38023
aI38024
aI38025
aI38026
aI38027
aI38028
aI38029
aI38030
aI38031
aI38032
aI38033
aI38034
aI38035
aI38036
aI38037
aI38038
aI38039
aI38040
aI38041
aI38042
aI38043
aI38044
aI38045
aI38046
aI38047
aI38048
aI38049
aI38050
aI38051
aI38052
aI38053
aI38054
aI38055
aI38056
aI38057
aI38058
aI38059
aI38060
aI38061
aI38062
aI38063
aI38064
aI38065
aI38066
aI38067
aI38068
aI38069
aI38070
aI38071
aI38072
aI38073
aI38074
aI38075
aI38076
aI38077
aI38078
aI38079
aI38080
aI38081
aI38082
aI38083
aI38084
aI38085
aI38086
aI38087
aI38088
aI38089
aI38090
aI38091
aI38092
aI38093
aI38094
aI38095
aI38096
aI38097
aI38098
aI38099
aI38100
aI38101
aI38102
aI38103
aI38104
aI38105
aI38106
aI38107
aI38108
aI38109
aI38110
aI38111
aI38112
aI38113
aI38114
aI38115
aI38116
aI38117
aI38118
aI38119
aI38120
aI38121
aI38122
aI38123
aI38124
aI38125
aI38126
aI38127
aI38128
aI38129
aI38130
aI38131
aI38132
aI38133
aI38134
aI38135
aI38136
aI38137
aI38138
aI38139
aI38140
aI38141
aI38142
aI38143
aI38144
aI38145
aI38146
aI38147
aI38148
aI38149
aI38150
aI38151
aI38152
aI38153
aI38154
aI38155
aI38156
aI38157
aI38158
aI38159
aI38160
aI38161
aI38162
aI38163
aI38164
aI38165
aI38166
aI38167
aI38168
aI38169
aI38170
aI38171
aI38172
aI38173
aI38174
aI38175
aI38176
aI38177
aI38178
aI38179
aI38180
aI38181
aI38182
aI38183
aI38184
aI38185
aI38186
aI38187
aI38188
aI38189
aI38190
aI38191
aI38192
aI38193
aI38194
aI38195
aI38196
aI38197
aI38198
aI38199
aI38200
aI38201
aI38202
aI38203
aI38204
aI38205
aI38206
aI38207
aI38208
aI38209
aI38210
aI38211
aI38212
aI38213
aI38214
aI38215
aI38216
aI38217
aI38218
aI38219
aI38220
aI38221
aI38222
aI38223
aI38224
aI38225
aI38226
aI38227
aI38228
aI38229
aI38230
aI38231
aI38232
aI38233
aI38234
aI38235
aI38236
aI38237
aI38238
aI38239
aI38240
aI38241
aI38242
aI38243
aI38244
aI38245
aI38246
aI38247
aI38248
aI38249
aI38250
aI38251
aI38252
aI38253
aI38254
aI38255
aI38256
aI38257
aI38258
aI38259
aI38260
aI38261
aI38262
aI38263
aI38264
aI38265
aI38266
aI38267
aI38268
aI38269
aI38270
aI38271
aI38272
aI38273
aI38274
aI38275
aI38276
aI38277
aI38278
aI38279
aI38280
aI38281
aI38282
aI38283
aI38284
aI38285
aI38286
aI38287
aI38288
aI38289
aI38290
aI38291
aI38292
aI38293
aI38294
aI38295
aI38296
aI38297
aI38298
aI38299
aI38300
aI38301
aI38302
aI38303
aI38304
aI38305
aI38306
aI38307
aI38308
aI38309
aI38310
aI38311
aI38312
aI38313
aI38314
aI38315
aI38316
aI38317
aI38318
aI38319
aI38320
aI38321
aI38322
aI38323
aI38324
aI38325
aI38326
aI38327
aI38328
aI38329
aI38330
aI38331
aI38332
aI38333
aI38334
aI38335
aI38336
aI38337
aI38338
aI38339
aI38340
aI38341
aI38342
aI38343
aI38344
aI38345
aI38346
aI38347
aI38348
aI38349
aI38350
aI38351
aI38352
aI38353
aI38354
aI38355
aI38356
aI38357
aI38358
aI38359
aI38360
aI38361
aI38362
aI38363
aI38364
aI38365
aI38366
aI38367
aI38368
aI38369
aI38370
aI38371
aI38372
aI38373
aI38374
aI38375
aI38376
aI38377
aI38378
aI38379
aI38380
aI38381
aI38382
aI38383
aI38384
aI38385
aI38386
aI38387
aI38388
aI38389
aI38390
aI38391
aI38392
aI38393
aI38394
aI38395
aI38396
aI38397
aI38398
aI38399
aI38400
aI38401
aI38402
aI38403
aI38404
aI38405
aI38406
aI38407
aI38408
aI38409
aI38410
aI38411
aI38412
aI38413
aI38414
aI38415
aI38416
aI38417
aI38418
aI38419
aI38420
aI38421
aI38422
aI38423
aI38424
aI38425
aI38426
aI38427
aI38428
aI38429
aI38430
aI38431
aI38432
aI38433
aI38434
aI38435
aI38436
aI38437
aI38438
aI38439
aI38440
aI38441
aI38442
aI38443
aI38444
aI38445
aI38446
aI38447
aI38448
aI38449
aI38450
aI38451
aI38452
aI38453
aI38454
aI38455
aI38456
aI38457
aI38458
aI38459
aI38460
aI38461
aI38462
aI38463
aI38464
aI38465
aI38466
aI38467
aI38468
aI38469
aI38470
aI38471
aI38472
aI38473
aI38474
aI38475
aI38476
aI38477
aI38478
aI38479
aI38480
aI38481
aI38482
aI38483
aI38484
aI38485
aI38486
aI38487
aI38488
aI38489
aI38490
aI38491
aI38492
aI38493
aI38494
aI38495
aI38496
aI38497
aI38498
aI38499
aI38500
aI38501
aI38502
aI38503
aI38504
aI38505
aI38506
aI38507
aI38508
aI38509
aI38510
aI38511
aI38512
aI38513
aI38514
aI38515
aI38516
aI38517
aI38518
aI38519
aI38520
aI38521
aI38522
aI38523
aI38524
aI38525
aI38526
aI38527
aI38528
aI38529
aI38530
aI38531
aI38532
aI38533
aI38534
aI38535
aI38536
aI38537
aI38538
aI38539
aI38540
aI38541
aI38542
aI38543
aI38544
aI38545
aI38546
aI38547
aI38548
aI38549
aI38550
aI38551
aI38552
aI38553
aI38554
aI38555
aI38556
aI38557
aI38558
aI38559
aI38560
aI38561
aI38562
aI38563
aI38564
aI38565
aI38566
aI38567
aI38568
aI38569
aI38570
aI38571
aI38572
aI38573
aI38574
aI38575
aI38576
aI38577
aI38578
aI38579
aI38580
aI38581
aI38582
aI38583
aI38584
aI38585
aI38586
aI38587
aI38588
aI38589
aI38590
aI38591
aI38592
aI38593
aI38594
aI38595
aI38596
aI38597
aI38598
aI38599
aI38600
aI38601
aI38602
aI38603
aI38604
aI38605
aI38606
aI38607
aI38608
aI38609
aI38610
aI38611
aI38612
aI38613
aI38614
aI38615
aI38616
aI38617
aI38618
aI38619
aI38620
aI38621
aI38622
aI38623
aI38624
aI38625
aI38626
aI38627
aI38628
aI38629
aI38630
aI38631
aI38632
aI38633
aI38634
aI38635
aI38636
aI38637
aI38638
aI38639
aI38640
aI38641
aI38642
aI38643
aI38644
aI38645
aI38646
aI38647
aI38648
aI38649
aI38650
aI38651
aI38652
aI38653
aI38654
aI38655
aI38656
aI38657
aI38658
aI38659
aI38660
aI38661
aI38662
aI38663
aI38664
aI38665
aI38666
aI38667
aI38668
aI38669
aI38670
aI38671
aI38672
aI38673
aI38674
aI38675
aI38676
aI38677
aI38678
aI38679
aI38680
aI38681
aI38682
aI38683
aI38684
aI38685
aI38686
aI38687
aI38688
aI38689
aI38690
aI38691
aI38692
aI38693
aI38694
aI38695
aI38696
aI38697
aI38698
aI38699
aI38700
aI38701
aI38702
aI38703
aI38704
aI38705
aI38706
aI38707
aI38708
aI38709
aI38710
aI38711
aI38712
aI38713
aI38714
aI38715
aI38716
aI38717
aI38718
aI38719
aI38720
aI38721
aI38722
aI38723
aI38724
aI38725
aI38726
aI38727
aI38728
aI38729
aI38730
aI38731
aI38732
aI38733
aI38734
aI38735
aI38736
aI38737
aI38738
aI38739
aI38740
aI38741
aI38742
aI38743
aI38744
aI38745
aI38746
aI38747
aI38748
aI38749
aI38750
aI38751
aI38752
aI38753
aI38754
aI38755
aI38756
aI38757
aI38758
aI38759
aI38760
aI38761
aI38762
aI38763
aI38764
aI38765
aI38766
aI38767
aI38768
aI38769
aI38770
aI38771
aI38772
aI38773
aI38774
aI38775
aI38776
aI38777
aI38778
aI38779
aI38780
aI38781
aI38782
aI38783
aI38784
aI38785
aI38786
aI38787
aI38788
aI38789
aI38790
aI38791
aI38792
aI38793
aI38794
aI38795
aI38796
aI38797
aI38798
aI38799
aI38800
aI38801
aI38802
aI38803
aI38804
aI38805
aI38806
aI38807
aI38808
aI38809
aI38810
aI38811
aI38812
aI38813
aI38814
aI38815
aI38816
aI38817
aI38818
aI38819
aI38820
aI38821
aI38822
aI38823
aI38824
aI38825
aI38826
aI38827
aI38828
aI38829
aI38830
aI38831
aI38832
aI38833
aI38834
aI38835
aI38836
aI38837
aI38838
aI38839
aI38840
aI38841
aI38842
aI38843
aI38844
aI38845
aI38846
aI38847
aI38848
aI38849
aI38850
aI38851
aI38852
aI38853
aI38854
aI38855
aI38856
aI38857
aI38858
aI38859
aI38860
aI38861
aI38862
aI38863
aI38864
aI38865
aI38866
aI38867
aI38868
aI38869
aI38870
aI38871
aI38872
aI38873
aI38874
aI38875
aI38876
aI38877
aI38878
aI38879
aI38880
aI38881
aI38882
aI38883
aI38884
aI38885
aI38886
aI38887
aI38888
aI38889
aI38890
aI38891
aI38892
aI38893
aI38894
aI38895
aI38896
aI38897
aI38898
aI38899
aI38900
aI38901
aI38902
aI38903
aI38904
aI38905
aI38906
aI38907
aI38908
aI38909
aI38910
aI38911
aI38912
aI38913
aI38914
aI38915
aI38916
aI38917
aI38918
aI38919
aI38920
aI38921
aI38922
aI38923
aI38924
aI38925
aI38926
aI38927
aI38928
aI38929
aI38930
aI38931
aI38932
aI38933
aI38934
aI38935
aI38936
aI38937
aI38938
aI38939
aI38940
aI38941
aI38942
aI38943
aI38944
aI38945
aI38946
aI38947
aI38948
aI38949
aI38950
aI38951
aI38952
aI38953
aI38954
aI38955
aI38956
aI38957
aI38958
aI38959
aI38960
aI38961
aI38962
aI38963
aI38964
aI38965
aI38966
aI38967
aI38968
aI38969
aI38970
aI38971
aI38972
aI38973
aI38974
aI38975
aI38976
aI38977
aI38978
aI38979
aI38980
aI38981
aI38982
aI38983
aI38984
aI38985
aI38986
aI38987
aI38988
aI38989
aI38990
aI38991
aI38992
aI38993
aI38994
aI38995
aI38996
aI38997
aI38998
aI38999
aI39000
aI39001
aI39002
aI39003
aI39004
aI39005
aI39006
aI39007
aI39008
aI39009
aI39010
aI39011
aI39012
aI39013
aI39014
aI39015
aI39016
aI39017
aI39018
aI39019
aI39020
aI39021
aI39022
aI39023
aI39024
aI39025
aI39026
aI39027
aI39028
aI39029
aI39030
aI39031
aI39032
aI39033
aI39034
aI39035
aI39036
aI39037
aI39038
aI39039
aI39040
aI39041
aI39042
aI39043
aI39044
aI39045
aI39046
aI39047
aI39048
aI39049
aI39050
aI39051
aI39052
aI39053
aI39054
aI39055
aI39056
aI39057
aI39058
aI39059
aI39060
aI39061
aI39062
aI39063
aI39064
aI39065
aI39066
aI39067
aI39068
aI39069
aI39070
aI39071
aI39072
aI39073
aI39074
aI39075
aI39076
aI39077
aI39078
aI39079
aI39080
aI39081
aI39082
aI39083
aI39084
aI39085
aI39086
aI39087
aI39088
aI39089
aI39090
aI39091
aI39092
aI39093
aI39094
aI39095
aI39096
aI39097
aI39098
aI39099
aI39100
aI39101
aI39102
aI39103
aI39104
aI39105
aI39106
aI39107
aI39108
aI39109
aI39110
aI39111
aI39112
aI39113
aI39114
aI39115
aI39116
aI39117
aI39118
aI39119
aI39120
aI39121
aI39122
aI39123
aI39124
aI39125
aI39126
aI39127
aI39128
aI39129
aI39130
aI39131
aI39132
aI39133
aI39134
aI39135
aI39136
aI39137
aI39138
aI39139
aI39140
aI39141
aI39142
aI39143
aI39144
aI39145
aI39146
aI39147
aI39148
aI39149
aI39150
aI39151
aI39152
aI39153
aI39154
aI39155
aI39156
aI39157
aI39158
aI39159
aI39160
aI39161
aI39162
aI39163
aI39164
aI39165
aI39166
aI39167
aI39168
aI39169
aI39170
aI39171
aI39172
aI39173
aI39174
aI39175
aI39176
aI39177
aI39178
aI39179
aI39180
aI39181
aI39182
aI39183
aI39184
aI39185
aI39186
aI39187
aI39188
aI39189
aI39190
aI39191
aI39192
aI39193
aI39194
aI39195
aI39196
aI39197
aI39198
aI39199
aI39200
aI39201
aI39202
aI39203
aI39204
aI39205
aI39206
aI39207
aI39208
aI39209
aI39210
aI39211
aI39212
aI39213
aI39214
aI39215
aI39216
aI39217
aI39218
aI39219
aI39220
aI39221
aI39222
aI39223
aI39224
aI39225
aI39226
aI39227
aI39228
aI39229
aI39230
aI39231
aI39232
aI39233
aI39234
aI39235
aI39236
aI39237
aI39238
aI39239
aI39240
aI39241
aI39242
aI39243
aI39244
aI39245
aI39246
aI39247
aI39248
aI39249
aI39250
aI39251
aI39252
aI39253
aI39254
aI39255
aI39256
aI39257
aI39258
aI39259
aI39260
aI39261
aI39262
aI39263
aI39264
aI39265
aI39266
aI39267
aI39268
aI39269
aI39270
aI39271
aI39272
aI39273
aI39274
aI39275
aI39276
aI39277
aI39278
aI39279
aI39280
aI39281
aI39282
aI39283
aI39284
aI39285
aI39286
aI39287
aI39288
aI39289
aI39290
aI39291
aI39292
aI39293
aI39294
aI39295
aI39296
aI39297
aI39298
aI39299
aI39300
aI39301
aI39302
aI39303
aI39304
aI39305
aI39306
aI39307
aI39308
aI39309
aI39310
aI39311
aI39312
aI39313
aI39314
aI39315
aI39316
aI39317
aI39318
aI39319
aI39320
aI39321
aI39322
aI39323
aI39324
aI39325
aI39326
aI39327
aI39328
aI39329
aI39330
aI39331
aI39332
aI39333
aI39334
aI39335
aI39336
aI39337
aI39338
aI39339
aI39340
aI39341
aI39342
aI39343
aI39344
aI39345
aI39346
aI39347
aI39348
aI39349
aI39350
aI39351
aI39352
aI39353
aI39354
aI39355
aI39356
aI39357
aI39358
aI39359
aI39360
aI39361
aI39362
aI39363
aI39364
aI39365
aI39366
aI39367
aI39368
aI39369
aI39370
aI39371
aI39372
aI39373
aI39374
aI39375
aI39376
aI39377
aI39378
aI39379
aI39380
aI39381
aI39382
aI39383
aI39384
aI39385
aI39386
aI39387
aI39388
aI39389
aI39390
aI39391
aI39392
aI39393
aI39394
aI39395
aI39396
aI39397
aI39398
aI39399
aI39400
aI39401
aI39402
aI39403
aI39404
aI39405
aI39406
aI39407
aI39408
aI39409
aI39410
aI39411
aI39412
aI39413
aI39414
aI39415
aI39416
aI39417
aI39418
aI39419
aI39420
aI39421
aI39422
aI39423
aI39424
aI39425
aI39426
aI39427
aI39428
aI39429
aI39430
aI39431
aI39432
aI39433
aI39434
aI39435
aI39436
aI39437
aI39438
aI39439
aI39440
aI39441
aI39442
aI39443
aI39444
aI39445
aI39446
aI39447
aI39448
aI39449
aI39450
aI39451
aI39452
aI39453
aI39454
aI39455
aI39456
aI39457
aI39458
aI39459
aI39460
aI39461
aI39462
aI39463
aI39464
aI39465
aI39466
aI39467
aI39468
aI39469
aI39470
aI39471
aI39472
aI39473
aI39474
aI39475
aI39476
aI39477
aI39478
aI39479
aI39480
aI39481
aI39482
aI39483
aI39484
aI39485
aI39486
aI39487
aI39488
aI39489
aI39490
aI39491
aI39492
aI39493
aI39494
aI39495
aI39496
aI39497
aI39498
aI39499
aI39500
aI39501
aI39502
aI39503
aI39504
aI39505
aI39506
aI39507
aI39508
aI39509
aI39510
aI39511
aI39512
aI39513
aI39514
aI39515
aI39516
aI39517
aI39518
aI39519
aI39520
aI39521
aI39522
aI39523
aI39524
aI39525
aI39526
aI39527
aI39528
aI39529
aI39530
aI39531
aI39532
aI39533
aI39534
aI39535
aI39536
aI39537
aI39538
aI39539
aI39540
aI39541
aI39542
aI39543
aI39544
aI39545
aI39546
aI39547
aI39548
aI39549
aI39550
aI39551
aI39552
aI39553
aI39554
aI39555
aI39556
aI39557
aI39558
aI39559
aI39560
aI39561
aI39562
aI39563
aI39564
aI39565
aI39566
aI39567
aI39568
aI39569
aI39570
aI39571
aI39572
aI39573
aI39574
aI39575
aI39576
aI39577
aI39578
aI39579
aI39580
aI39581
aI39582
aI39583
aI39584
aI39585
aI39586
aI39587
aI39588
aI39589
aI39590
aI39591
aI39592
aI39593
aI39594
aI39595
aI39596
aI39597
aI39598
aI39599
aI39600
aI39601
aI39602
aI39603
aI39604
aI39605
aI39606
aI39607
aI39608
aI39609
aI39610
aI39611
aI39612
aI39613
aI39614
aI39615
aI39616
aI39617
aI39618
aI39619
aI39620
aI39621
aI39622
aI39623
aI39624
aI39625
aI39626
aI39627
aI39628
aI39629
aI39630
aI39631
aI39632
aI39633
aI39634
aI39635
aI39636
aI39637
aI39638
aI39639
aI39640
aI39641
aI39642
aI39643
aI39644
aI39645
aI39646
aI39647
aI39648
aI39649
aI39650
aI39651
aI39652
aI39653
aI39654
aI39655
aI39656
aI39657
aI39658
aI39659
aI39660
aI39661
aI39662
aI39663
aI39664
aI39665
aI39666
aI39667
aI39668
aI39669
aI39670
aI39671
aI39672
aI39673
aI39674
aI39675
aI39676
aI39677
aI39678
aI39679
aI39680
aI39681
aI39682
aI39683
aI39684
aI39685
aI39686
aI39687
aI39688
aI39689
aI39690
aI39691
aI39692
aI39693
aI39694
aI39695
aI39696
aI39697
aI39698
aI39699
aI39700
aI39701
aI39702
aI39703
aI39704
aI39705
aI39706
aI39707
aI39708
aI39709
aI39710
aI39711
aI39712
aI39713
aI39714
aI39715
aI39716
aI39717
aI39718
aI39719
aI39720
aI39721
aI39722
aI39723
aI39724
aI39725
aI39726
aI39727
aI39728
aI39729
aI39730
aI39731
aI39732
aI39733
aI39734
aI39735
aI39736
aI39737
aI39738
aI39739
aI39740
aI39741
aI39742
aI39743
aI39744
aI39745
aI39746
aI39747
aI39748
aI39749
aI39750
aI39751
aI39752
aI39753
aI39754
aI39755
aI39756
aI39757
aI39758
aI39759
aI39760
aI39761
aI39762
aI39763
aI39764
aI39765
aI39766
aI39767
aI39768
aI39769
aI39770
aI39771
aI39772
aI39773
aI39774
aI39775
aI39776
aI39777
aI39778
aI39779
aI39780
aI39781
aI39782
aI39783
aI39784
aI39785
aI39786
aI39787
aI39788
aI39789
aI39790
aI39791
aI39792
aI39793
aI39794
aI39795
aI39796
aI39797
aI39798
aI39799
aI39800
aI39801
aI39802
aI39803
aI39804
aI39805
aI39806
aI39807
aI39808
aI39809
aI39810
aI39811
aI39812
aI39813
aI39814
aI39815
aI39816
aI39817
aI39818
aI39819
aI39820
aI39821
aI39822
aI39823
aI39824
aI39825
aI39826
aI39827
aI39828
aI39829
aI39830
aI39831
aI39832
aI39833
aI39834
aI39835
aI39836
aI39837
aI39838
aI39839
aI39840
aI39841
aI39842
aI39843
aI39844
aI39845
aI39846
aI39847
aI39848
aI39849
aI39850
aI39851
aI39852
aI39853
aI39854
aI39855
aI39856
aI39857
aI39858
aI39859
aI39860
aI39861
aI39862
aI39863
aI39864
aI39865
aI39866
aI39867
aI39868
aI39869
aI39870
aI39871
aI39872
aI39873
aI39874
aI39875
aI39876
aI39877
aI39878
aI39879
aI39880
aI39881
aI39882
aI39883
aI39884
aI39885
aI39886
aI39887
aI39888
aI39889
aI39890
aI39891
aI39892
aI39893
aI39894
aI39895
aI39896
aI39897
aI39898
aI39899
aI39900
aI39901
aI39902
aI39903
aI39904
aI39905
aI39906
aI39907
aI39908
aI39909
aI39910
aI39911
aI39912
aI39913
aI39914
aI39915
aI39916
aI39917
aI39918
aI39919
aI39920
aI39921
aI39922
aI39923
aI39924
aI39925
aI39926
aI39927
aI39928
aI39929
aI39930
aI39931
aI39932
aI39933
aI39934
aI39935
aI39936
aI39937
aI39938
aI39939
aI39940
aI39941
aI39942
aI39943
aI39944
aI39945
aI39946
aI39947
aI39948
aI39949
aI39950
aI39951
aI39952
aI39953
aI39954
aI39955
aI39956
aI39957
aI39958
aI39959
aI39960
aI39961
aI39962
aI39963
aI39964
aI39965
aI39966
aI39967
aI39968
aI39969
aI39970
aI39971
aI39972
aI39973
aI39974
aI39975
aI39976
aI39977
aI39978
aI39979
aI39980
aI39981
aI39982
aI39983
aI39984
aI39985
aI39986
aI39987
aI39988
aI39989
aI39990
aI39991
aI39992
aI39993
aI39994
aI39995
aI39996
aI39997
aI39998
aI39999
aI40000
aI40001
aI40002
aI40003
aI40004
aI40005
aI40006
aI40007
aI40008
aI40009
aI40010
aI40011
aI40012
aI40013
aI40014
aI40015
aI40016
aI40017
aI40018
aI40019
aI40020
aI40021
aI40022
aI40023
aI40024
aI40025
aI40026
aI40027
aI40028
aI40029
aI40030
aI40031
aI40032
aI40033
aI40034
aI40035
aI40036
aI40037
aI40038
aI40039
aI40040
aI40041
aI40042
aI40043
aI40044
aI40045
aI40046
aI40047
aI40048
aI40049
aI40050
aI40051
aI40052
aI40053
aI40054
aI40055
aI40056
aI40057
aI40058
aI40059
aI40060
aI40061
aI40062
aI40063
aI40064
aI40065
aI40066
aI40067
aI40068
aI40069
aI40070
aI40071
aI40072
aI40073
aI40074
aI40075
aI40076
aI40077
aI40078
aI40079
aI40080
aI40081
aI40082
aI40083
aI40084
aI40085
aI40086
aI40087
aI40088
aI40089
aI40090
aI40091
aI40092
aI40093
aI40094
aI40095
aI40096
aI40097
aI40098
aI40099
aI40100
aI40101
aI40102
aI40103
aI40104
aI40105
aI40106
aI40107
aI40108
aI40109
aI40110
aI40111
aI40112
aI40113
aI40114
aI40115
aI40116
aI40117
aI40118
aI40119
aI40120
aI40121
aI40122
aI40123
aI40124
aI40125
aI40126
aI40127
aI40128
aI40129
aI40130
aI40131
aI40132
aI40133
aI40134
aI40135
aI40136
aI40137
aI40138
aI40139
aI40140
aI40141
aI40142
aI40143
aI40144
aI40145
aI40146
aI40147
aI40148
aI40149
aI40150
aI40151
aI40152
aI40153
aI40154
aI40155
aI40156
aI40157
aI40158
aI40159
aI40160
aI40161
aI40162
aI40163
aI40164
aI40165
aI40166
aI40167
aI40168
aI40169
aI40170
aI40171
aI40172
aI40173
aI40174
aI40175
aI40176
aI40177
aI40178
aI40179
aI40180
aI40181
aI40182
aI40183
aI40184
aI40185
aI40186
aI40187
aI40188
aI40189
aI40190
aI40191
aI40192
aI40193
aI40194
aI40195
aI40196
aI40197
aI40198
aI40199
aI40200
aI40201
aI40202
aI40203
aI40204
aI40205
aI40206
aI40207
aI40208
aI40209
aI40210
aI40211
aI40212
aI40213
aI40214
aI40215
aI40216
aI40217
aI40218
aI40219
aI40220
aI40221
aI40222
aI40617
aI40620
aI40624
aI40625
aI40626
aI40628
aI40629
aI40630
aI40647
aI40648
aI40649
aI40650
aI40651
aI40652
aI40653
aI40654
aI40655
aI40656
aI40657
aI40658
aI40659
aI40660
aI40661
aI40662
aI40665
aI40668
aI40669
aI40670
aI43727
aI43728
aI43729
aI43730
aI43731
aI43732
aI43733
aI43734
aI43736
aI43737
aI43738
aI43740
aI43741
aI43742
aI43743
aI43744
aI43745
aI43746
aI43747
aI43748
aI43749
aI43750
aI43751
aI43752
aI43753
aI43754
aI43755
aI43756
aI43757
aI43758
aI43759
aI43760
aI43761
aI43762
aI43763
aI43764
aI43765
aI43766
aI43767
aI43768
aI43769
aI43770
aI43771
aI43772
aI43773
aI43774
aI43775
aI43776
aI43777
aI43778
aI43779
aI43780
aI43781
aI43782
aI43783
aI43784
aI43785
aI43786
aI43787
aI43788
aI43789
aI43790
aI43793
aI43796
aI43816
aI43817
aI43818
aI43820
aI43821
aI43822
aI43823
aI43824
aI43825
aI43826
aI43827
aI43828
aI43829
aI43830
aI43831
aI43832
aI43833
aI43834
aI43835
aI43836
aI43837
aI43838
aI43839
aI43840
aI43841
aI43842
aI43843
aI43844
aI43845
aI43846
aI43847
aI43848
aI43849
aI43850
aI43851
aI43852
aI43853
aI43854
aI43855
aI43856
aI43857
aI43858
aI43859
aI43860
aI43861
aI43862
aI43863
aI43864
aI43865
aI43866
aI43867
aI43868
aI43869
aI43870
aI43871
aI43872
aI43873
aI43874
aI43875
aI43876
aI43877
aI43878
aI43879
aI43880
aI43881
aI43882
aI43883
aI43884
aI43885
aI43886
aI43887
aI43888
aI43889
aI43890
aI43891
aI43892
aI43893
aI43894
aI43895
aI43896
aI43897
aI43898
aI43899
aI43900
aI43901
aI43902
aI43903
aI43904
aI43905
aI43906
aI43907
aI43908
aI43909
aI43910
aI43911
aI43912
aI43913
aI43914
aI43915
aI43916
aI43917
aI43918
aI43919
aI43920
aI43921
aI43922
aI43923
aI43924
aI43925
aI43926
aI43927
aI43928
aI43929
aI43930
aI43931
aI43932
aI43933
aI43934
aI43935
aI43936
aI43937
aI43938
aI43939
aI43940
aI43941
aI43942
aI43943
aI43944
aI43945
aI43946
aI43947
aI43948
aI43949
aI43950
aI43951
aI43952
aI43953
aI43954
aI43955
aI43956
aI43957
aI43958
aI43959
aI43960
aI43961
aI43962
aI43963
aI43964
aI43965
aI43966
aI43967
aI43968
aI43969
aI43970
aI43971
aI43972
aI43973
aI43974
aI43975
aI43976
aI43977
aI43978
aI43979
aI43980
aI43981
aI43982
aI43983
aI43984
aI43985
aI43986
aI43987
aI43988
aI43989
aI43990
aI43991
aI43992
aI43993
aI43994
aI43995
aI43996
aI43997
aI43998
aI43999
aI44000
aI44001
aI44002
aI44003
aI44004
aI44005
aI44006
aI44007
aI44008
aI44009
aI44010
aI44011
aI44012
aI44013
aI44014
aI44783
aI44784
aI44785
aI44786
aI44787
aI44788
aI44789
aI44790
aI44791
aI44792
aI44793
aI44794
aI44795
aI44796
aI44797
aI44798
aI44799
aI44800
aI44801
aI44802
aI44803
aI44804
aI44805
aI44806
aI44807
aI44808
aI44809
aI44810
aI44811
aI44812
aI44813
aI44814
aI44815
aI44816
aI44817
aI44818
aI44819
aI44820
aI44821
aI44822
aI44823
aI44824
aI44825
aI44826
aI44827
aI44828
aI44829
aI44830
aI44831
aI44832
aI44833
aI44834
aI44835
aI44836
aI44837
aI44838
aI44839
aI44840
aI44841
aI44842
aI44843
aI44844
aI44845
aI44846
aI44847
aI44848
aI44849
aI44850
aI44851
aI44852
aI44853
aI44854
aI44855
aI44856
aI44857
aI44858
aI44859
aI44860
aI44861
aI44862
aI44863
aI44864
aI44865
aI44866
aI44867
aI44868
aI44869
aI44870
aI44871
aI44872
aI44873
aI44874
aI44875
aI44876
aI44877
aI44878
aI44879
aI44880
aI44881
aI44882
aI44883
aI44884
aI44885
aI44886
aI44887
aI44888
aI44889
aI44890
aI44891
aI44892
aI44893
aI44894
aI44895
aI44896
aI44897
aI44898
aI44899
aI44900
aI44901
aI44902
aI44903
aI44904
aI44905
aI44906
aI44907
aI44908
aI44909
aI44910
aI44911
aI44912
aI44913
aI44914
aI44915
aI44916
aI44917
aI44918
aI44919
aI44920
aI44921
aI44922
aI44923
aI44924
aI44925
aI44926
aI44927
aI44928
aI44929
aI44930
aI44931
aI44932
aI44933
aI44934
aI44935
aI44936
aI44937
aI44938
aI44939
aI44940
aI44941
aI44942
aI44943
aI44944
aI44945
aI44946
aI44947
aI44948
aI44949
aI44950
aI44951
aI44952
aI44953
aI44954
aI44955
aI44956
aI44957
aI44958
aI44959
aI44960
aI44961
aI44962
aI44963
aI44964
aI44965
aI44966
aI44967
aI44968
aI44969
aI44970
aI44971
aI44972
aI44973
aI44974
aI44975
aI44976
aI44977
aI44978
aI44979
aI44980
aI44981
aI44982
aI44983
aI44984
aI44985
aI44986
aI44987
aI44988
aI44989
aI44990
aI44991
aI44992
aI44993
aI44994
aI44995
aI44996
aI44997
aI44998
aI44999
aI45000
aI45001
aI45002
aI45003
aI45004
aI45005
aI45006
aI45007
aI45008
aI45009
aI45010
aI45011
aI45012
aI45013
aI45014
aI45015
aI45016
aI45017
aI45018
aI45019
aI45020
aI45021
aI45022
aI45023
aI45024
aI45025
aI45026
aI45027
aI45028
aI45029
aI45030
aI45031
aI45032
aI45033
aI45034
aI45035
aI45036
aI45037
aI45038
aI45039
aI45040
aI45041
aI45042
aI45043
aI45044
aI45045
aI45046
aI45047
aI45048
aI45049
aI45050
aI45051
aI45052
aI45053
aI45054
aI45055
aI45056
aI45057
aI45058
aI45059
aI45060
aI45061
aI45062
aI45063
aI45064
aI45065
aI45066
aI45067
aI45068
aI45069
aI45070
aI45071
aI45072
aI45073
aI45074
aI45075
aI45076
aI45077
aI45078
aI45079
aI45080
aI45081
aI45082
aI45083
aI45084
aI45085
aI45086
aI45087
aI45088
aI45089
aI45090
aI45091
aI45092
aI45093
aI45094
aI45095
aI45096
aI45097
aI45098
aI45099
aI45100
aI45101
aI45102
aI45103
aI45104
aI45105
aI45106
aI45107
aI45108
aI45109
aI45110
aI45111
aI45112
aI45113
aI45114
aI45115
aI45116
aI45117
aI45118
aI45119
aI45120
aI45121
aI45122
aI45123
aI45124
aI45125
aI45126
aI45127
aI45128
aI45129
aI45130
aI45131
aI45132
aI45133
aI45134
aI45135
aI45136
aI45137
aI45138
aI45139
aI45140
aI45141
aI45142
aI45143
aI45144
aI45145
aI45146
aI45147
aI45148
aI45149
aI45150
aI45151
aI45152
aI45153
aI45154
aI45155
aI45156
aI45157
aI45158
aI45159
aI45160
aI45161
aI45162
aI45163
aI45164
aI45165
aI45166
aI45167
aI45168
aI45169
aI45170
aI45171
aI45172
aI45173
aI45174
aI45175
aI45176
aI45177
aI45178
aI45179
aI45180
aI45181
aI45182
aI45183
aI45184
aI45185
aI45186
aI45187
aI45188
aI45189
aI45190
aI45191
aI45192
aI45193
aI45194
aI45195
aI45196
aI45197
aI45198
aI45199
aI45200
aI45201
aI45202
aI45203
aI45204
aI45205
aI45206
aI45207
aI45208
aI45209
aI45210
aI45211
aI45212
aI45213
aI45214
aI45215
aI45216
aI45217
aI45218
aI45219
aI45220
aI45221
aI45222
aI45223
aI45224
aI45225
aI45226
aI45227
aI45228
aI45229
aI45230
aI45231
aI45232
aI45233
aI45234
aI45235
aI45236
aI45237
aI45238
aI45239
aI45240
aI45241
aI45242
aI45243
aI45244
aI45245
aI45246
aI45247
aI45248
aI45249
aI45250
aI45251
aI45252
aI45253
aI45254
aI45255
aI45256
aI45257
aI45258
aI45259
aI45260
aI45261
aI45262
aI45263
aI45264
aI45265
aI45266
aI45267
aI45268
aI45269
aI45270
aI45271
aI45272
aI45273
aI45274
aI45275
aI45276
aI45277
aI45278
aI45279
aI45280
aI45281
aI45282
aI45283
aI45284
aI45285
aI45286
aI45287
aI45288
aI45289
aI45290
aI45291
aI45292
aI45293
aI45294
aI45295
aI45296
aI45297
aI45298
aI45299
aI45300
aI45301
aI45302
aI45303
aI45304
aI45305
aI45306
aI45307
aI45308
aI45309
aI45310
aI45311
aI45312
aI45313
aI45314
aI45315
aI45316
aI45317
aI45318
aI45319
aI45320
aI45321
aI45322
aI45323
aI45324
aI45325
aI45326
aI45327
aI45328
aI45329
aI45330
aI45331
aI45332
aI45333
aI45334
aI45335
aI45336
aI45337
aI45338
aI45339
aI45340
aI45341
aI45342
aI45343
aI45344
aI45345
aI45346
aI45347
aI45348
aI45349
aI45350
aI45351
aI45352
aI45353
aI45354
aI45355
aI45356
aI45357
aI45358
aI45359
aI45360
aI45361
aI45362
aI45363
aI45364
aI45365
aI45366
aI45367
aI45368
aI45369
aI45370
aI45371
aI45372
aI45373
aI45374
aI45375
aI45376
aI45377
aI45378
aI45379
aI45380
aI45381
aI45382
aI45383
aI45384
aI45385
aI45386
aI45387
aI45388
aI45389
aI45390
aI45391
aI45392
aI45393
aI45394
aI45395
aI45396
aI45397
aI45398
aI45399
aI45400
aI45401
aI45402
aI45403
aI45404
aI45405
aI45406
aI45407
aI45408
aI45409
aI45410
aI45411
aI45412
aI45413
aI45414
aI45415
aI45416
aI45417
aI45418
aI45419
aI45420
aI45421
aI45422
aI45423
aI45424
aI45425
aI45426
aI45427
aI45428
aI45429
aI45430
aI45431
aI45432
aI45433
aI45434
aI45435
aI45436
aI45437
aI45438
aI45439
aI45440
aI45441
aI45442
aI45443
aI45444
aI45445
aI45446
aI45447
aI45448
aI45449
aI45450
aI45451
aI45452
aI45453
aI45454
aI45455
aI45456
aI45457
aI45458
aI45459
aI45460
aI45461
aI45462
aI45463
aI45464
aI45465
aI45466
aI45467
aI45468
aI45469
aI45470
aI45471
aI45472
aI45473
aI45474
aI45475
aI45476
aI45477
aI45478
aI45479
aI45480
aI45481
aI45482
aI45483
aI45484
aI45485
aI45486
aI45487
aI45488
aI45489
aI45490
aI45491
aI45492
aI45493
aI45494
aI45495
aI45496
aI45497
aI45498
aI45499
aI45500
aI45501
aI45502
aI45503
aI45504
aI45505
aI45506
aI45507
aI45508
aI45509
aI45510
aI45511
aI45512
aI45513
aI45514
aI45515
aI45516
aI45517
aI45518
aI45519
aI45520
aI45521
aI45522
aI45523
aI45524
aI45525
aI45526
aI45527
aI45528
aI45529
aI45530
aI45531
aI45532
aI45533
aI45534
aI45535
aI45536
aI45537
aI45538
aI45539
aI45540
aI45541
aI45542
aI45543
aI45544
aI45545
aI45546
aI45547
aI45548
aI45549
aI45550
aI45551
aI45552
aI45553
aI45554
aI45555
aI45556
aI45557
aI45558
aI45559
aI45560
aI45561
aI45562
aI45563
aI45564
aI45565
aI45566
aI45567
aI45568
aI45569
aI45570
aI45571
aI45572
aI45573
aI45574
aI45575
aI45576
aI45577
aI45578
aI45579
aI45580
aI45581
aI45582
aI45583
aI45584
aI45585
aI45586
aI45587
aI45588
aI45589
aI45590
aI45591
aI45592
aI45593
aI45594
aI45595
aI45596
aI45597
aI45598
aI45599
aI45600
aI45601
aI45602
aI45603
aI45604
aI45605
aI45606
aI45607
aI45608
aI45609
aI45610
aI45611
aI45612
aI45613
aI45614
aI45615
aI45616
aI45617
aI45618
aI45619
aI45620
aI45621
aI45622
aI45623
aI45624
aI45625
aI45626
aI45627
aI45628
aI45629
aI45630
aI45631
aI45632
aI45633
aI45634
aI45635
aI45636
aI45637
aI45638
aI45639
aI45640
aI45641
aI45642
aI45643
aI45644
aI45645
aI45646
aI45647
aI45648
aI45649
aI45650
aI45651
aI45652
aI45653
aI45654
aI45655
aI45656
aI45657
aI45658
aI45659
aI45660
aI45661
aI45662
aI45663
aI45664
aI45665
aI45666
aI45667
aI45668
aI45669
aI45670
aI45671
aI45672
aI45673
aI45674
aI45675
aI45676
aI45677
aI45678
aI45679
aI45680
aI45681
aI45682
aI45683
aI45684
aI45685
aI45686
aI45687
aI45688
aI45689
aI45690
aI45691
aI45692
aI45693
aI45694
aI45695
aI45696
aI45697
aI45698
aI45699
aI45700
aI45701
aI45702
aI45703
aI45704
aI45705
aI45706
aI45707
aI45708
aI45709
aI45710
aI45711
aI45712
aI45713
aI45714
aI45715
aI45716
aI45717
aI45718
aI45719
aI45720
aI45721
aI45722
aI45723
aI45724
aI45725
aI45726
aI45727
aI45728
aI45729
aI45730
aI45731
aI45732
aI45733
aI45734
aI45735
aI45736
aI45737
aI45738
aI45739
aI45740
aI45741
aI45742
aI45743
aI45744
aI45745
aI45746
aI45747
aI45748
aI45749
aI45750
aI45751
aI45752
aI45753
aI45754
aI45755
aI45756
aI45757
aI45758
aI45759
aI45760
aI45761
aI45762
aI45763
aI45764
aI45765
aI45766
aI45767
aI45768
aI45769
aI45770
aI45771
aI45772
aI45773
aI45774
aI45775
aI45776
aI45777
aI45778
aI45779
aI45780
aI45781
aI45782
aI45783
aI45784
aI45785
aI45786
aI45787
aI45788
aI45789
aI45790
aI45791
aI45792
aI45793
aI45794
aI45795
aI45796
aI45797
aI45798
aI45799
aI45800
aI45801
aI45802
aI45803
aI45804
aI45805
aI45806
aI45807
aI45808
aI45809
aI45810
aI45811
aI45812
aI45813
aI45814
aI45815
aI45816
aI45817
aI45818
aI45819
aI45820
aI45821
aI45822
aI45823
aI45824
aI45825
aI45826
aI45827
aI45828
aI45829
aI45830
aI45831
aI45832
aI45833
aI45834
aI45835
aI45836
aI45837
aI45838
aI45839
aI45840
aI45841
aI45842
aI45843
aI45844
aI45845
aI45846
aI45847
aI45848
aI45849
aI45850
aI45851
aI45852
aI45853
aI45854
aI45855
aI45856
aI45857
aI45858
aI45859
aI45860
aI45861
aI45862
aI45863
aI45864
aI45865
aI45866
aI45867
aI45868
aI45869
aI45870
aI45871
aI45872
aI45873
aI45874
aI45875
aI45876
aI45877
aI45878
aI45879
aI45880
aI45881
aI45882
aI45883
aI45884
aI45885
aI45886
aI45887
aI45888
aI45889
aI45890
aI45891
aI45892
aI45893
aI45894
aI45895
aI45896
aI45897
aI45898
aI45899
aI45900
aI45901
aI45902
aI45903
aI45904
aI45905
aI45906
aI45907
aI45908
aI45909
aI45910
aI45911
aI45912
aI45913
aI45914
aI45915
aI45916
aI45917
aI45918
aI45919
aI45920
aI45921
aI45922
aI45923
aI45924
aI45925
aI45926
aI45927
aI45928
aI45929
aI45930
aI45931
aI45932
aI45933
aI45934
aI45935
aI45936
aI45937
aI45938
aI45939
aI45940
aI45941
aI45942
aI45943
aI45944
aI45945
aI45946
aI45947
aI45948
aI45949
aI45950
aI45951
aI45952
aI45953
aI45954
aI45955
aI45956
aI45957
aI45958
aI45959
aI45960
aI45961
aI45962
aI45963
aI45964
aI45965
aI45966
aI45967
aI45968
aI45969
aI45970
aI45971
aI45972
aI45973
aI45974
aI45975
aI45976
aI45977
aI45978
aI45979
aI45980
aI45981
aI45982
aI45983
aI45984
aI45985
aI45986
aI45987
aI45988
aI45989
aI45990
aI45991
aI45992
aI45993
aI45994
aI45995
aI45996
aI45997
aI45998
aI45999
aI46000
aI46001
aI46002
aI46003
aI46004
aI46005
aI46006
aI46007
aI46008
aI46009
aI46010
aI46011
aI46012
aI46013
aI46014
aI46015
aI46016
aI46017
aI46018
aI46019
aI46020
aI46021
aI46022
aI46023
aI46024
aI46025
aI46026
aI46027
aI46028
aI46029
aI46030
aI46031
aI46032
aI46033
aI46034
aI46035
aI46036
aI46037
aI46038
aI46039
aI46040
aI46041
aI46042
aI46043
aI46044
aI46045
aI46046
aI46047
aI46048
aI46049
aI46050
aI46051
aI46052
aI46053
aI46054
aI46055
aI46056
aI46057
aI46058
aI46059
aI46060
aI46061
aI46062
aI46063
aI46064
aI46065
aI46066
aI46067
aI46068
aI46069
aI46070
aI46071
aI46072
aI46073
aI46074
aI46075
aI46076
aI46077
aI46078
aI46079
aI46080
aI46081
aI46082
aI46083
aI46084
aI46085
aI46086
aI46087
aI46088
aI46089
aI46090
aI46091
aI46092
aI46093
aI46094
aI46095
aI46096
aI46097
aI46098
aI46099
aI46100
aI46101
aI46102
aI46103
aI46104
aI46105
aI46106
aI46107
aI46108
aI46109
aI46110
aI46111
aI46112
aI46113
aI46114
aI46115
aI46116
aI46117
aI46118
aI46119
aI46120
aI46121
aI46122
aI46123
aI46124
aI46125
aI46126
aI46127
aI46128
aI46129
aI46130
aI46131
aI46132
aI46133
aI46134
aI46135
aI46136
aI46137
aI46138
aI46139
aI46140
aI46141
aI46142
aI46143
aI46144
aI46145
aI46146
aI46147
aI46148
aI46149
aI46150
aI46151
aI46152
aI46153
aI46154
aI46155
aI46156
aI46157
aI46158
aI46159
aI46160
aI46161
aI46162
aI46163
aI46164
aI46165
aI46166
aI46167
aI46168
aI46169
aI46170
aI46171
aI46172
aI46173
aI46174
aI46175
aI46176
aI46177
aI46178
aI46179
aI46180
aI46181
aI46182
aI46183
aI46184
aI46185
aI46186
aI46187
aI46188
aI46189
aI46190
aI46191
aI46192
aI46193
aI46194
aI46195
aI46196
aI46197
aI46198
aI46199
aI46200
aI46201
aI46202
aI46203
aI46204
aI46205
aI46206
aI46207
aI46208
aI46209
aI46210
aI46211
aI46212
aI46213
aI46214
aI46215
aI46216
aI46217
aI46218
aI46219
aI46220
aI46221
aI46222
aI46223
aI46224
aI46225
aI46226
aI46227
aI46228
aI46229
aI46230
aI46231
aI46232
aI46233
aI46234
aI46235
aI46236
aI46237
aI46238
aI46239
aI46240
aI46241
aI46242
aI46243
aI46244
aI46245
aI46246
aI46247
aI46248
aI46249
aI46250
aI46251
aI46252
aI46253
aI46254
aI46255
aI46256
aI46257
aI46258
aI46259
aI46260
aI46261
aI46262
aI46263
aI46264
aI46265
aI46266
aI46267
aI46268
aI46269
aI46270
aI46271
aI46272
aI46273
aI46274
aI46275
aI46276
aI46277
aI46278
aI46279
aI46280
aI46281
aI46282
aI46283
aI46284
aI46285
aI46286
aI46287
aI46288
aI46289
aI46290
aI46291
aI46292
aI46293
aI46294
aI46295
aI46296
aI46297
aI46298
aI46299
aI46300
aI46301
aI46302
aI46303
aI46304
aI46305
aI46306
aI46307
aI46308
aI46309
aI46310
aI46311
aI46312
aI46313
aI46314
aI46315
aI46316
aI46317
aI46318
aI46319
aI46320
aI46321
aI46322
aI46323
aI46324
aI46325
aI46326
aI46327
aI46328
aI46329
aI46330
aI46331
aI46332
aI46333
aI46334
aI46335
aI46336
aI46337
aI46338
aI46339
aI46340
aI46341
aI46342
aI46343
aI46344
aI46345
aI46346
aI46347
aI46348
aI46349
aI46350
aI46351
aI46352
aI46353
aI46354
aI46355
aI46356
aI46357
aI46358
aI46359
aI46360
aI46361
aI46362
aI46363
aI46364
aI46365
aI46366
aI46367
aI46368
aI46369
aI46370
aI46371
aI46372
aI46373
aI46374
aI46375
aI46376
aI46377
aI46378
aI46379
aI46380
aI46381
aI46382
aI46479
aI46480
aI46481
aI46482
aI46483
aI46484
aI46485
aI46486
aI46487
aI46488
aI46489
aI46490
aI46491
aI46492
aI46493
aI46494
aI46495
aI46496
aI46497
aI46498
aI46499
aI46500
aI46501
aI46502
aI46503
aI46504
aI46505
aI46506
aI46507
aI46508
aI46509
aI46510
aI46511
aI46512
aI46513
aI46514
aI46515
aI46516
aI46517
aI46518
aI46519
aI46520
aI46521
aI46522
aI46523
aI46524
aI46525
aI46526
aI46527
aI46528
aI46529
aI46530
aI46531
aI46532
aI46533
aI46534
aI46535
aI46536
aI46537
aI46538
aI46539
aI46540
aI46541
aI46542
aI46543
aI46544
aI46545
aI46546
aI46547
aI46548
aI46549
aI46550
aI46551
aI46552
aI46553
aI46554
aI46555
aI46556
aI46557
aI46558
aI46559
aI46560
aI46561
aI46562
aI46563
aI46564
aI46565
aI46566
aI46567
aI46568
aI46569
aI46570
aI46571
aI46572
aI46573
aI46574
aI46639
aI46640
aI46642
aI46643
aI46703
aI46704
aI46706
aI46707
aI46727
aI46728
aI46730
aI46731
aI46734
aI46759
aI46760
aI46762
aI46831
aI46832
aI46833
aI46834
aI46835
aI46836
aI46837
aI46838
aI46839
aI46840
aI46841
aI46842
aI46843
aI46844
aI46845
aI46846
aI46847
aI46848
aI46849
aI46850
aI46851
aI46852
aI46853
aI46854
aI46855
aI46856
aI46857
aI46858
aI46859
aI46860
aI46861
aI46862
aI46863
aI46864
aI46865
aI46866
aI46867
aI46868
aI46869
aI46870
aI46871
aI46872
aI46873
aI46874
aI46875
aI46876
aI46877
aI46878
aI46879
aI46880
aI46881
aI46882
aI46883
aI46884
aI46885
aI46886
aI46887
aI46888
aI46889
aI46890
aI46891
aI46892
aI46893
aI46894
aI46895
aI46896
aI46897
aI46898
aI46899
aI46900
aI46901
aI46902
aI46903
aI46904
aI46905
aI46906
aI46907
aI46908
aI46909
aI46910
aI46911
aI46912
aI46913
aI46914
aI46915
aI46916
aI46917
aI46918
aI46919
aI46920
aI46921
aI46922
aI46923
aI46924
aI46925
aI46926
aI46927
aI46928
aI46929
aI46930
aI46931
aI46932
aI46933
aI46934
aI46935
aI46936
aI46937
aI46938
aI46939
aI46940
aI46941
aI46942
aI46943
aI46944
aI46945
aI46946
aI46947
aI46948
aI46949
aI46950
aI46951
aI46952
aI46953
aI46954
aI46955
aI46956
aI46957
aI46958
aI46959
aI46960
aI46961
aI46962
aI46963
aI46964
aI46965
aI46966
aI46967
aI46968
aI46969
aI46970
aI46971
aI46972
aI46973
aI46974
aI46975
aI46976
aI46977
aI46978
aI46979
aI46980
aI46981
aI46982
aI46983
aI46984
aI46985
aI46986
aI46987
aI46988
aI46989
aI46990
aI46991
aI46992
aI46993
aI46994
aI46995
aI46996
aI46997
aI46998
aI46999
aI47000
aI47001
aI47002
aI47003
aI47004
aI47005
aI47006
aI47007
aI47008
aI47009
aI47010
aI47011
aI47012
aI47013
aI47014
aI47015
aI47016
aI47017
aI47018
aI47019
aI47020
aI47021
aI47022
aI47023
aI47024
aI47025
aI47026
aI47027
aI47028
aI47029
aI47030
aI47031
aI47032
aI47033
aI47034
aI47035
aI47036
aI47037
aI47038
aI47039
aI47040
aI47041
aI47042
aI47043
aI47044
aI47045
aI47046
aI47047
aI47048
aI47049
aI47050
aI47051
aI47052
aI47053
aI47054
aI47055
aI47056
aI47057
aI47058
aI47059
aI47060
aI47061
aI47062
aI47063
aI47064
aI47065
aI47066
aI47067
aI47068
aI47069
aI47070
aI47071
aI47072
aI47073
aI47074
aI47075
aI47076
aI47077
aI47078
aI47079
aI47080
aI47081
aI47082
aI47083
aI47084
aI47085
aI47086
aI47087
aI47088
aI47089
aI47090
aI47091
aI47092
aI47093
aI47094
aI47095
aI47096
aI47097
aI47098
aI47099
aI47100
aI47101
aI47102
aI47103
aI47104
aI47105
aI47106
aI47107
aI47108
aI47109
aI47110
aI47111
aI47112
aI47113
aI47114
aI47115
aI47116
aI47117
aI47118
aI47119
aI47120
aI47121
aI47122
aI47123
aI47124
aI47125
aI47126
aI47127
aI47128
aI47129
aI47130
aI47131
aI47132
aI47133
aI47134
aI47135
aI47136
aI47137
aI47138
aI47139
aI47140
aI47141
aI47142
aI47143
aI47144
aI47145
aI47146
aI47147
aI47148
aI47149
aI47150
aI47151
aI47152
aI47153
aI47154
aI47155
aI47156
aI47157
aI47158
aI47159
aI47160
aI47161
aI47162
aI47163
aI47164
aI47165
aI47166
aI47167
aI47168
aI47169
aI47170
aI47171
aI47172
aI47173
aI47174
aI47175
aI47176
aI47177
aI47178
aI47179
aI47180
aI47181
aI47182
aI47183
aI47184
aI47185
aI47186
aI47187
aI47188
aI47189
aI47190
aI47191
aI47192
aI47193
aI47194
aI47195
aI47196
aI47197
aI47198
aI47199
aI47200
aI47201
aI47202
aI47203
aI47204
aI47205
aI47206
aI47207
aI47208
aI47209
aI47210
aI47211
aI47212
aI47213
aI47214
aI47215
aI47216
aI47217
aI47218
aI47219
aI47220
aI47221
aI47222
aI47223
aI47224
aI47225
aI47226
aI47227
aI47228
aI47229
aI47230
aI47231
aI47232
aI47233
aI47234
aI47235
aI47236
aI47237
aI47238
aI47239
aI47240
aI47241
aI47242
aI47243
aI47244
aI47245
aI47246
aI47247
aI47248
aI47249
aI47250
aI47251
aI47252
aI47253
aI47254
aI47255
aI47256
aI47257
aI47258
aI47259
aI47260
aI47261
aI47262
aI47263
aI47264
aI47265
aI47266
aI47267
aI47268
aI47269
aI47270
aI47271
aI47272
aI47273
aI47274
aI47275
aI47276
aI47277
aI47278
aI47279
aI47280
aI47281
aI47282
aI47283
aI47284
aI47285
aI47286
aI47287
aI47288
aI47289
aI47290
aI47291
aI47292
aI47293
aI47294
aI47295
aI47296
aI47297
aI47298
aI47299
aI47300
aI47301
aI47302
aI47303
aI47304
aI47305
aI47306
aI47307
aI47308
aI47309
aI47310
aI47311
aI47312
aI47313
aI47314
aI47315
aI47316
aI47317
aI47318
aI47319
aI47320
aI47321
aI47322
aI47323
aI47324
aI47325
aI47326
aI47327
aI47328
aI47329
aI47330
aI47331
aI47332
aI47333
aI47334
aI47335
aI47336
aI47337
aI47338
aI47339
aI47340
aI47341
aI47342
aI47343
aI47344
aI47345
aI47346
aI47347
aI47348
aI47349
aI47350
aI47351
aI47352
aI47353
aI47354
aI47355
aI47356
aI47357
aI47358
aI47359
aI47360
aI47361
aI47362
aI47363
aI47364
aI47365
aI47366
aI47367
aI47368
aI47369
aI47370
aI47371
aI47372
aI47373
aI47374
aI47375
aI47376
aI47377
aI47378
aI47379
aI47380
aI47381
aI47382
aI47383
aI47384
aI47385
aI47386
aI47387
aI47388
aI47389
aI47390
aI47391
aI47392
aI47393
aI47394
aI47395
aI47396
aI47397
aI47398
aI47399
aI47400
aI47401
aI47402
aI47403
aI47404
aI47405
aI47406
aI47407
aI47408
aI47409
aI47410
aI47411
aI47412
aI47413
aI47414
aI47415
aI47416
aI47417
aI47418
aI47419
aI47420
aI47421
aI47422
aI47423
aI47424
aI47425
aI47426
aI47427
aI47428
aI47429
aI47430
aI47431
aI47432
aI47433
aI47434
aI47435
aI47436
aI47437
aI47438
aI47439
aI47440
aI47441
aI47442
aI47443
aI47444
aI47445
aI47446
aI47447
aI47448
aI47449
aI47450
aI47451
aI47452
aI47453
aI47454
aI47455
aI47456
aI47457
aI47458
aI47459
aI47460
aI47461
aI47462
aI47463
aI47464
aI47465
aI47466
aI47467
aI47468
aI47469
aI47470
aI47471
aI47472
aI47473
aI47474
aI47475
aI47476
aI47477
aI47478
aI47479
aI47480
aI47481
aI47482
aI47483
aI47484
aI47485
aI47486
aI47487
aI47488
aI47489
aI47490
aI47491
aI47492
aI47493
aI47494
aI47495
aI47496
aI47497
aI47498
aI47499
aI47500
aI47501
aI47502
aI47503
aI47504
aI47505
aI47506
aI47507
aI47508
aI47509
aI47510
aI47511
aI47512
aI47513
aI47514
aI47515
aI47516
aI47517
aI47518
aI47519
aI47520
aI47521
aI47522
aI47523
aI47524
aI47525
aI47526
aI47527
aI47528
aI47529
aI47530
aI47531
aI47532
aI47533
aI47534
aI47535
aI47536
aI47537
aI47538
aI47539
aI47540
aI47541
aI47542
aI47543
aI47544
aI47545
aI47546
aI47547
aI47548
aI47549
aI47550
aI47551
aI47552
aI47553
aI47554
aI47555
aI47556
aI47557
aI47558
aI47559
aI47560
aI47561
aI47562
aI47563
aI47564
aI47565
aI47566
aI47567
aI47568
aI47569
aI47570
aI47571
aI47572
aI47573
aI47574
aI47575
aI47576
aI47577
aI47578
aI47579
aI47580
aI47581
aI47582
aI47583
aI47584
aI47585
aI47586
aI47587
aI47588
aI47589
aI47590
aI47591
aI47592
aI47593
aI47594
aI47595
aI47596
aI47597
aI47598
aI47599
aI47600
aI47601
aI47602
aI47603
aI47604
aI47605
aI47606
aI47607
aI47608
aI47609
aI47610
aI47611
aI47612
aI47613
aI47614
aI47615
aI47616
aI47617
aI47618
aI47619
aI47620
aI47621
aI47622
aI47623
aI47624
aI47625
aI47626
aI47627
aI47628
aI47629
aI47630
aI47631
aI47632
aI47633
aI47634
aI47635
aI47636
aI47637
aI47638
aI47639
aI47640
aI47641
aI47642
aI47643
aI47644
aI47645
aI47646
aI47647
aI47648
aI47649
aI47650
aI47651
aI47652
aI47653
aI47654
aI47655
aI47656
aI47657
aI47658
aI47659
aI47660
aI47661
aI47662
aI47663
aI47664
aI47665
aI47666
aI47667
aI47668
aI47669
aI47670
aI47671
aI47672
aI47673
aI47674
aI47675
aI47676
aI47677
aI47678
aI47679
aI47680
aI47681
aI47682
aI47683
aI47684
aI47685
aI47686
aI47687
aI47688
aI47689
aI47690
aI47691
aI47692
aI47693
aI47694
aI47695
aI47696
aI47697
aI47698
aI47699
aI47700
aI47701
aI47702
aI47703
aI47704
aI47705
aI47706
aI47707
aI47708
aI47709
aI47710
aI47711
aI47712
aI47713
aI47714
aI47715
aI47716
aI47717
aI47718
aI47719
aI47720
aI47721
aI47722
aI47723
aI47724
aI47725
aI47726
aI47727
aI47728
aI47729
aI47730
aI47731
aI47732
aI47733
aI47734
aI47735
aI47736
aI47737
aI47738
aI47739
aI47740
aI47741
aI47742
aI47743
aI47744
aI47745
aI47746
aI47747
aI47748
aI47749
aI47750
aI47751
aI47752
aI47753
aI47754
aI47755
aI47756
aI47757
aI47758
aI47759
aI47760
aI47761
aI47762
aI47763
aI47764
aI47765
aI47766
aI47767
aI47768
aI47769
aI47770
aI47771
aI47772
aI47773
aI47774
aI47775
aI47776
aI47777
aI47778
aI47779
aI47780
aI47781
aI47782
aI47783
aI47784
aI47785
aI47786
aI47787
aI47788
aI47789
aI47790
aI47791
aI47792
aI47793
aI47794
aI47795
aI47796
aI47797
aI47798
aI47799
aI47800
aI47801
aI47802
aI47803
aI47804
aI47805
aI47806
aI47807
aI47808
aI47809
aI47810
aI47811
aI47812
aI47813
aI47814
aI47815
aI47816
aI47817
aI47818
aI47819
aI47820
aI47821
aI47822
aI47823
aI47824
aI47825
aI47826
aI47827
aI47828
aI47829
aI47830
aI47831
aI47832
aI47833
aI47834
aI47835
aI47836
aI47837
aI47838
aI47839
aI47840
aI47841
aI47842
aI47843
aI47844
aI47845
aI47846
aI47847
aI47848
aI47849
aI47850
aI47851
aI47852
aI47853
aI47854
aI47855
aI47856
aI47857
aI47858
aI47859
aI47860
aI47861
aI47862
aI47863
aI47864
aI47865
aI47866
aI47867
aI47868
aI47869
aI47870
aI47871
aI47872
aI47873
aI47874
aI47875
aI47876
aI47877
aI47878
aI47879
aI47880
aI47881
aI47882
aI47883
aI47884
aI47885
aI47886
aI48175
aI48176
aI48177
aI48178
aI48179
aI48180
aI48181
aI48182
aI48183
aI48184
aI48185
aI48186
aI48187
aI48188
aI48189
aI48190
aI48191
aI48192
aI48193
aI48194
aI48195
aI48196
aI48197
aI48198
aI48199
aI48200
aI48201
aI48202
aI48203
aI48204
aI48205
aI48206
aI48207
aI48208
aI48209
aI48210
aI48211
aI48212
aI48213
aI48214
aI48215
aI48216
aI48217
aI48218
aI48219
aI48220
aI48221
aI48222
aI48223
aI48224
aI48225
aI48226
aI48227
aI48228
aI48229
aI48230
aI48231
aI48232
aI48233
aI48234
aI48235
aI48236
aI48237
aI48238
aI48239
aI48240
aI48241
aI48242
aI48243
aI48244
aI48245
aI48246
aI48247
aI48248
aI48249
aI48250
aI48251
aI48252
aI48253
aI48254
aI48255
aI48256
aI48257
aI48258
aI48259
aI48260
aI48261
aI48262
aI48263
aI48264
aI48265
aI48266
aI48267
aI48268
aI48269
aI48270
aI48271
aI48272
aI48273
aI48274
aI48275
aI48276
aI48277
aI48278
aI48279
aI48280
aI48281
aI48282
aI48283
aI48284
aI48285
aI48286
aI48287
aI48288
aI48289
aI48290
aI48291
aI48292
aI48293
aI48294
aI48295
aI48296
aI48297
aI48298
aI48299
aI48300
aI48301
aI48302
aI48303
aI48304
aI48305
aI48306
aI48307
aI48308
aI48309
aI48310
aI48311
aI48312
aI48313
aI48314
aI48315
aI48316
aI48317
aI48318
aI48319
aI48320
aI48321
aI48322
aI48323
aI48324
aI48325
aI48326
aI48327
aI48328
aI48329
aI48330
aI48331
aI48332
aI48333
aI48334
aI48335
aI48336
aI48337
aI48338
aI48339
aI48340
aI48341
aI48342
aI48343
aI48344
aI48345
aI48346
aI48347
aI48348
aI48349
aI48350
aI48351
aI48352
aI48353
aI48354
aI48355
aI48356
aI48357
aI48358
aI48359
aI48360
aI48361
aI48362
aI48363
aI48364
aI48365
aI48366
aI48367
aI48368
aI48369
aI48370
aI48371
aI48372
aI48373
aI48374
aI48375
aI48376
aI48377
aI48378
aI48379
aI48380
aI48381
aI48382
aI48383
aI48384
aI48385
aI48386
aI48387
aI48388
aI48389
aI48390
aI48391
aI48392
aI48393
aI48394
aI48395
aI48396
aI48397
aI48398
aI48399
aI48400
aI48401
aI48402
aI48403
aI48404
aI48405
aI48406
aI48407
aI48408
aI48409
aI48410
aI48411
aI48412
aI48413
aI48414
aI48415
aI48416
aI48417
aI48418
aI48419
aI48420
aI48421
aI48422
aI48423
aI48424
aI48425
aI48426
aI48427
aI48428
aI48429
aI48430
aI48431
aI48432
aI48433
aI48434
aI48435
aI48436
aI48437
aI48438
aI48439
aI48440
aI48441
aI48442
aI48443
aI48444
aI48445
aI48446
aI48447
aI48448
aI48449
aI48450
aI48451
aI48452
aI48453
aI48454
aI48455
aI48456
aI48457
aI48458
aI48459
aI48460
aI48461
aI48462
aI48463
aI48464
aI48465
aI48466
aI48467
aI48468
aI48469
aI48470
aI48471
aI48472
aI48473
aI48474
aI48475
aI48476
aI48477
aI48478
aI48479
aI48480
aI48481
aI48482
aI48483
aI48484
aI48485
aI48486
aI48487
aI48488
aI48489
aI48490
aI48491
aI48492
aI48493
aI48494
aI48495
aI48496
aI48497
aI48498
aI48499
aI48500
aI48501
aI48502
aI48503
aI48504
aI48505
aI48506
aI48507
aI48508
aI48509
aI48510
aI48511
aI48512
aI48513
aI48514
aI48515
aI48516
aI48517
aI48518
aI48519
aI48520
aI48521
aI48522
aI48523
aI48524
aI48525
aI48526
aI48527
aI48528
aI48529
aI48530
aI48531
aI48532
aI48533
aI48534
aI48535
aI48536
aI48537
aI48538
aI48539
aI48540
aI48541
aI48542
aI48543
aI48544
aI48545
aI48546
aI48547
aI48548
aI48549
aI48550
aI49159
aI49160
aI49161
aI49162
aI49163
aI49164
aI49165
aI49166
aI49167
aI49168
aI49169
aI49170
aI49171
aI49172
aI49173
aI49174
aI49175
aI49176
aI49177
aI49178
aI49179
aI49180
aI49181
aI49182
aI49183
aI49184
aI49185
aI49186
aI49187
aI49188
aI49189
aI49190
aI49191
aI49192
aI49193
aI49194
aI49195
aI49196
aI49197
aI49198
aI49199
aI49200
aI49201
aI49202
aI49203
aI49204
aI49205
aI49206
aI49207
aI49208
aI49209
aI49210
aI49211
aI49212
aI49213
aI49214
aI49215
aI49216
aI49217
aI49218
aI49219
aI49220
aI49221
aI49222
aI49223
aI49224
aI49225
aI49226
aI49227
aI49228
aI49229
aI49230
aI49231
aI49232
aI49233
aI49234
aI49235
aI49236
aI49237
aI49238
aI49239
aI49240
aI49241
aI49242
aI49243
aI49244
aI49245
aI49246
aI49247
aI49248
aI49249
aI49250
aI49251
aI49252
aI49253
aI49254
aI49255
aI49256
aI49257
aI49258
aI49259
aI49260
aI49261
aI49262
aI49263
aI49264
aI49265
aI49266
aI49267
aI49268
aI49269
aI49270
aI49271
aI49272
aI49273
aI49274
aI49275
aI49276
aI49277
aI49278
aI49279
aI49280
aI49281
aI49282
aI49283
aI49284
aI49285
aI49286
aI49287
aI49288
aI49289
aI49290
aI49291
aI49292
aI49293
aI49294
aI49295
aI49296
aI49297
aI49298
aI49299
aI49300
aI49301
aI49302
aI49303
aI49304
aI49305
aI49306
aI49307
aI49308
aI49309
aI49310
aI49311
aI49312
aI49313
aI49314
aI49315
aI49316
aI49317
aI49318
aI49319
aI49320
aI49321
aI49322
aI49323
aI49324
aI49325
aI49326
aI49327
aI49328
aI49329
aI49330
aI49331
aI49332
aI49333
aI49334
aI49335
aI49336
aI49337
aI49338
aI49339
aI49340
aI49341
aI49342
aI49343
aI49344
aI49345
aI49346
aI49347
aI49348
aI49349
aI49350
aI49351
aI49352
aI49353
aI49354
aI49355
aI49356
aI49357
aI49358
aI49359
aI49360
aI49361
aI49362
aI49363
aI49364
aI49365
aI49366
aI49367
aI49368
aI49369
aI49370
aI49371
aI49372
aI49373
aI49374
aI49375
aI49376
aI49377
aI49378
aI49379
aI49380
aI49381
aI49382
aI49383
aI49384
aI49385
aI49386
aI49387
aI49388
aI49389
aI49390
aI49391
aI49392
aI49393
aI49394
aI49395
aI49396
aI49397
aI49398
aI49399
aI49400
aI49401
aI49402
aI49403
aI49404
aI49405
aI49406
aI49407
aI49408
aI49409
aI49410
aI49411
aI49412
aI49413
aI49414
aI49415
aI49416
aI49417
aI49418
aI49419
aI49420
aI49421
aI49422
aI49423
aI49424
aI49425
aI49426
aI49427
aI49428
aI49429
aI49430
aI49431
aI49432
aI49433
aI49434
aI49435
aI49436
aI49437
aI49438
aI49439
aI49440
aI49441
aI49442
aI49443
aI49444
aI49445
aI49446
aI49447
aI49448
aI49449
aI49450
aI49451
aI49452
aI49453
aI49454
aI49455
aI49456
aI49457
aI49458
aI49459
aI49460
aI49461
aI49462
aI49463
aI49464
aI49465
aI49466
aI49467
aI49468
aI49469
aI49470
aI49471
aI49472
aI49473
aI49474
aI49475
aI49476
aI49477
aI49478
aI49479
aI49480
aI49481
aI49482
aI49483
aI49484
aI49485
aI49486
aI49487
aI49488
aI49489
aI49490
aI49491
aI49492
aI49493
aI49494
aI49495
aI49496
aI49497
aI49498
aI49499
aI49500
aI49501
aI49502
aI49503
aI49504
aI49505
aI49506
aI49507
aI49508
aI49509
aI49510
aI49511
aI49512
aI49513
aI49514
aI49515
aI49516
aI49517
aI49518
aI49519
aI49520
aI49521
aI49522
aI49523
aI49524
aI49525
aI49526
aI49527
aI49528
aI49529
aI49530
aI49531
aI49532
aI49533
aI49534
aI49535
aI49536
aI49537
aI49538
aI49539
aI49540
aI49541
aI49542
aI49543
aI49544
aI49545
aI49546
aI49547
aI49548
aI49549
aI49550
aI49551
aI49552
aI49553
aI49554
aI49555
aI49556
aI49557
aI49558
aI49559
aI49560
aI49561
aI49562
aI49563
aI49564
aI49565
aI49566
aI49567
aI49568
aI49569
aI49570
aI49571
aI49572
aI49573
aI49574
aI49575
aI49576
aI49577
aI49578
aI49579
aI49580
aI49581
aI49582
aI49583
aI49584
aI49585
aI49586
aI49587
aI49588
aI49589
aI49590
aI49591
aI49592
aI49593
aI49594
aI49595
aI49596
aI49597
aI49598
aI49599
aI49600
aI49601
aI49602
aI49603
aI49604
aI49605
aI49606
aI49607
aI49608
aI49609
aI49610
aI49611
aI49612
aI49613
aI49614
aI49615
aI49616
aI49617
aI49618
aI49619
aI49620
aI49621
aI49622
aI49623
aI49624
aI49625
aI49626
aI49627
aI49628
aI49629
aI49630
aI49631
aI49632
aI49633
aI49634
aI49635
aI49636
aI49637
aI49638
aI49639
aI49640
aI49641
aI49642
aI49643
aI49644
aI49645
aI49646
aI49647
aI49648
aI49649
aI49650
aI49651
aI49652
aI49653
aI49654
aI49655
aI49656
aI49657
aI49658
aI49659
aI49660
aI49661
aI49662
aI49663
aI49664
aI49665
aI49666
aI49667
aI49668
aI49669
aI49670
aI49671
aI49672
aI49673
aI49674
aI49675
aI49676
aI49677
aI49678
aI49679
aI49680
aI49681
aI49682
aI49683
aI49684
aI49685
aI49686
aI49687
aI49688
aI49689
aI49690
aI49691
aI49692
aI49693
aI49694
aI49695
aI49696
aI49697
aI49698
aI49699
aI49700
aI49701
aI49702
aI49703
aI49704
aI49705
aI49706
aI49707
aI49708
aI49709
aI49710
aI49711
aI49712
aI49713
aI49714
aI49715
aI49716
aI49717
aI49718
aI49719
aI49720
aI49721
aI49722
aI49723
aI49724
aI49725
aI49726
aI49727
aI49728
aI49729
aI49730
aI49731
aI49732
aI49733
aI49734
aI49735
aI49736
aI49737
aI49738
aI49739
aI49740
aI49741
aI49742
aI49743
aI49744
aI49745
aI49746
aI49747
aI49748
aI49749
aI49750
aI49751
aI49752
aI49753
aI49754
aI49755
aI49756
aI49757
aI49758
aI49759
aI49760
aI49761
aI49762
aI49763
aI49764
aI49765
aI49766
aI49767
aI49768
aI49769
aI49770
aI49771
aI49772
aI49773
aI49774
aI49775
aI49776
aI49777
aI49778
aI49779
aI49780
aI49781
aI49782
aI49783
aI49784
aI49785
aI49786
aI49787
aI49788
aI49789
aI49790
aI49791
aI49792
aI49793
aI49794
aI49795
aI49796
aI49797
aI49798
aI49799
aI49800
aI49801
aI49802
aI49803
aI49804
aI49805
aI49806
aI49807
aI49808
aI49809
aI49810
aI49811
aI49812
aI49813
aI49814
aI49815
aI49816
aI49817
aI49818
aI49819
aI49820
aI49821
aI49822
aI49823
aI49824
aI49825
aI49826
aI49827
aI49828
aI49829
aI49830
aI49831
aI49832
aI49833
aI49834
aI49835
aI49836
aI49837
aI49838
aI49839
aI49840
aI49841
aI49842
aI49843
aI49844
aI49845
aI49846
aI49847
aI49848
aI49849
aI49850
aI49851
aI49852
aI49853
aI49854
aI49855
aI49856
aI49857
aI49858
aI49859
aI49860
aI49861
aI49862
aI49863
aI49864
aI49865
aI49866
aI49867
aI49868
aI49869
aI49870
aI49871
aI49872
aI49873
aI49874
aI49875
aI49876
aI49877
aI49878
aI49879
aI49880
aI49881
aI49882
aI49883
aI49884
aI49885
aI49886
aI49887
aI49888
aI49889
aI49890
aI49891
aI49892
aI49893
aI49894
aI49895
aI49896
aI49897
aI49898
aI49899
aI49900
aI49901
aI49902
aI49903
aI49904
aI49905
aI49906
aI49907
aI49908
aI49909
aI49910
aI49911
aI49912
aI49913
aI49914
aI49915
aI49916
aI49917
aI49918
aI49919
aI49920
aI49921
aI49922
aI49923
aI49924
aI49925
aI49926
aI49927
aI49928
aI49929
aI49930
aI49931
aI49932
aI49933
aI49934
aI49935
aI49936
aI49937
aI49938
aI49939
aI49940
aI49941
aI49942
aI49943
aI49944
aI49945
aI49946
aI49947
aI49948
aI49949
aI49950
aI49951
aI49952
aI49953
aI49954
aI49955
aI49956
aI49957
aI49958
aI49959
aI49960
aI49961
aI49962
aI49963
aI49964
aI49965
aI49966
aI49967
aI49968
aI49969
aI49970
aI49971
aI49972
aI49973
aI49974
aI49975
aI49976
aI49977
aI49978
aI49979
aI49980
aI49981
aI49982
aI49983
aI49984
aI49985
aI49986
aI49987
aI49988
aI49989
aI49990
aI49991
aI49992
aI49993
aI49994
aI49995
aI49996
aI49997
aI49998
aI49999
aI50000
aI50001
aI50002
aI50003
aI50004
aI50005
aI50006
aI50007
aI50008
aI50009
aI50010
aI50011
aI50012
aI50013
aI50014
aI50015
aI50016
aI50017
aI50018
aI50019
aI50020
aI50021
aI50022
aI50023
aI50024
aI50025
aI50026
aI50027
aI50028
aI50029
aI50030
aI50031
aI50032
aI50033
aI50034
aI50035
aI50036
aI50037
aI50038
aI50039
aI50040
aI50041
aI50042
aI50043
aI50044
aI50045
aI50046
aI50047
aI50048
aI50049
aI50050
aI50051
aI50052
aI50053
aI50054
aI50055
aI50056
aI50057
aI50058
aI50059
aI50060
aI50061
aI50062
aI50063
aI50064
aI50065
aI50066
aI50067
aI50068
aI50069
aI50070
aI50071
aI50072
aI50073
aI50074
aI50075
aI50076
aI50077
aI50078
aI50079
aI50080
aI50081
aI50082
aI50083
aI50084
aI50085
aI50086
aI50087
aI50088
aI50089
aI50090
aI50091
aI50092
aI50093
aI50094
aI50095
aI50096
aI50097
aI50098
aI50099
aI50100
aI50101
aI50102
aI50103
aI50104
aI50105
aI50106
aI50107
aI50108
aI50109
aI50110
aI50111
aI50112
aI50113
aI50114
aI50115
aI50116
aI50117
aI50118
aI50119
aI50120
aI50121
aI50122
aI50123
aI50124
aI50125
aI50126
aI50127
aI50128
aI50129
aI50130
aI50131
aI50132
aI50133
aI50134
aI50135
aI50136
aI50137
aI50138
aI50139
aI50140
aI50141
aI50142
aI50527
aI50528
aI50529
aI50530
aI50531
aI50532
aI50533
aI50534
aI50535
aI50536
aI50537
aI50538
aI50539
aI50540
aI50541
aI50542
aI50543
aI50544
aI50545
aI50546
aI50547
aI50548
aI50549
aI50550
aI50551
aI50552
aI50553
aI50554
aI50555
aI50556
aI50557
aI50558
aI50559
aI50560
aI50561
aI50562
aI50563
aI50564
aI50565
aI50566
aI50567
aI50568
aI50569
aI50570
aI50571
aI50572
aI50573
aI50574
aI50575
aI50576
aI50577
aI50578
aI50579
aI50580
aI50581
aI50582
aI50583
aI50584
aI50585
aI50586
aI50587
aI50588
aI50589
aI50590
aI50591
aI50592
aI50593
aI50594
aI50595
aI50596
aI50597
aI50598
aI50599
aI50600
aI50601
aI50602
aI50603
aI50604
aI50605
aI50606
aI50607
aI50608
aI50609
aI50610
aI50611
aI50612
aI50613
aI50614
aI50615
aI50616
aI50617
aI50618
aI50619
aI50620
aI50621
aI50622
aI50623
aI50624
aI50625
aI50626
aI50627
aI50628
aI50629
aI50630
aI50631
aI50632
aI50633
aI50634
aI50635
aI50636
aI50637
aI50638
aI50639
aI50640
aI50641
aI50642
aI50643
aI50644
aI50645
aI50646
aI50647
aI50648
aI50649
aI50650
aI50651
aI50652
aI50653
aI50654
aI50655
aI50656
aI50657
aI50658
aI50659
aI50660
aI50661
aI50662
aI50663
aI50664
aI50665
aI50666
aI50667
aI50668
aI50669
aI50670
aI50671
aI50672
aI50673
aI50674
aI50675
aI50676
aI50677
aI50678
aI50679
aI50680
aI50681
aI50682
aI50683
aI50684
aI50685
aI50686
aI50687
aI50688
aI50689
aI50690
aI50691
aI50692
aI50693
aI50694
aI50695
aI50696
aI50697
aI50698
aI50699
aI50700
aI50701
aI50702
aI50703
aI50704
aI50705
aI50706
aI50707
aI50708
aI50709
aI50710
aI50711
aI50712
aI50713
aI50714
aI50715
aI50716
aI50717
aI50718
aI50719
aI50720
aI50721
aI50722
aI50723
aI50724
aI50725
aI50726
aI50727
aI50728
aI50729
aI50730
aI50731
aI50732
aI50733
aI50734
aI50735
aI50736
aI50737
aI50738
aI50739
aI50740
aI50741
aI50742
aI50743
aI50744
aI50745
aI50746
aI50747
aI50748
aI50749
aI50750
aI50751
aI50752
aI50753
aI50754
aI50755
aI50756
aI50757
aI50758
aI50759
aI50760
aI50761
aI50762
aI50763
aI50764
aI50765
aI50766
aI50767
aI50768
aI50769
aI50770
aI50771
aI50772
aI50773
aI50774
aI50775
aI50776
aI50777
aI50778
aI50779
aI50780
aI50781
aI50782
aI50783
aI50784
aI50785
aI50786
aI50787
aI50788
aI50789
aI50790
aI50791
aI50792
aI50793
aI50794
aI50795
aI50796
aI50797
aI50798
aI50799
aI50800
aI50801
aI50802
aI50803
aI50804
aI50805
aI50806
aI50807
aI50808
aI50809
aI50810
aI50811
aI50812
aI50813
aI50814
aI50815
aI50816
aI50817
aI50818
aI50819
aI50820
aI50821
aI50822
aI50823
aI50824
aI50825
aI50826
aI50827
aI50828
aI50829
aI50830
aI50831
aI50832
aI50833
aI50834
aI50835
aI50836
aI50837
aI50838
aI50839
aI50840
aI50841
aI50842
aI50843
aI50844
aI50845
aI50846
aI50847
aI50848
aI50849
aI50850
aI50851
aI50852
aI50853
aI50854
aI50855
aI50856
aI50857
aI50858
aI50859
aI50860
aI50861
aI50862
aI50863
aI50864
aI50865
aI50866
aI50867
aI50868
aI50869
aI50870
aI50871
aI50872
aI50873
aI50874
aI50875
aI50876
aI50877
aI50878
aI50879
aI50880
aI50881
aI50882
aI50883
aI50884
aI50885
aI50886
aI50887
aI50888
aI50889
aI50890
aI50891
aI50892
aI50893
aI50894
aI50895
aI50896
aI50897
aI50898
aI50899
aI50900
aI50901
aI50902
aI50903
aI50904
aI50905
aI50906
aI50907
aI50908
aI50909
aI50910
aI50911
aI50912
aI50913
aI50914
aI50915
aI50916
aI50917
aI50918
aI50919
aI50920
aI50921
aI50922
aI50923
aI50924
aI50925
aI50926
aI50927
aI50928
aI50929
aI50930
aI50931
aI50932
aI50933
aI50934
aI50935
aI50936
aI50937
aI50938
aI50939
aI50940
aI50941
aI50942
aI50943
aI50944
aI50945
aI50946
aI50947
aI50948
aI50949
aI50950
aI50951
aI50952
aI50953
aI50954
aI50955
aI50956
aI50957
aI50958
aI50959
aI50960
aI50961
aI50962
aI50963
aI50964
aI50965
aI50966
aI50967
aI50968
aI50969
aI50970
aI50971
aI50972
aI50973
aI50974
aI50975
aI50976
aI50977
aI50978
aI50979
aI50980
aI50981
aI50982
aI50983
aI50984
aI50985
aI50986
aI50987
aI50988
aI50989
aI50990
aI50991
aI50992
aI50993
aI50994
aI50995
aI50996
aI50997
aI50998
aI50999
aI51000
aI51001
aI51002
aI51003
aI51004
aI51005
aI51006
aI51007
aI51008
aI51009
aI51010
aI51011
aI51012
aI51013
aI51014
aI51015
aI51016
aI51017
aI51018
aI51019
aI51020
aI51021
aI51022
aI51023
aI51024
aI51025
aI51026
aI51027
aI51028
aI51029
aI51030
aI51031
aI51032
aI51033
aI51034
aI51035
aI51036
aI51037
aI51038
aI51039
aI51040
aI51041
aI51042
aI51043
aI51044
aI51045
aI51046
aI51047
aI51048
aI51049
aI51050
aI51051
aI51052
aI51053
aI51054
aI51055
aI51056
aI51057
aI51058
aI51059
aI51060
aI51061
aI51062
aI51063
aI51064
aI51065
aI51066
aI51067
aI51068
aI51069
aI51070
aI51071
aI51072
aI51073
aI51074
aI51075
aI51076
aI51077
aI51078
aI51079
aI51080
aI51081
aI51082
aI51083
aI51084
aI51085
aI51086
aI51087
aI51088
aI51089
aI51090
aI51091
aI51092
aI51093
aI51094
aI51095
aI51096
aI51097
aI51098
aI51099
aI51100
aI51101
aI51102
aI51103
aI51104
aI51105
aI51106
aI51107
aI51108
aI51109
aI51110
aI51111
aI51112
aI51113
aI51114
aI51115
aI51116
aI51117
aI51118
aI51119
aI51120
aI51121
aI51122
aI51123
aI51124
aI51125
aI51126
aI51127
aI51128
aI51129
aI51130
aI51131
aI51132
aI51133
aI51134
aI51135
aI51136
aI51137
aI51138
aI51139
aI51140
aI51141
aI51142
aI51143
aI51144
aI51145
aI51146
aI51147
aI51148
aI51149
aI51150
aI51151
aI51152
aI51153
aI51154
aI51155
aI51156
aI51157
aI51158
aI51159
aI51160
aI51161
aI51162
aI51163
aI51164
aI51165
aI51166
aI51167
aI51168
aI51169
aI51170
aI51171
aI51172
aI51173
aI51174
aI51175
aI51176
aI51177
aI51178
aI51179
aI51180
aI51181
aI51182
aI51183
aI51184
aI51185
aI51186
aI51187
aI51188
aI51189
aI51190
aI51191
aI51192
aI51193
aI51194
aI51195
aI51196
aI51197
aI51198
aI51199
aI51200
aI51201
aI51202
aI51203
aI51204
aI51205
aI51206
aI51207
aI51208
aI51209
aI51210
aI51211
aI51212
aI51213
aI51214
aI51215
aI51216
aI51217
aI51218
aI51219
aI51220
aI51221
aI51222
aI51223
aI51224
aI51225
aI51226
aI51227
aI51228
aI51229
aI51230
aI51231
aI51232
aI51233
aI51234
aI51235
aI51236
aI51237
aI51238
aI51239
aI51240
aI51241
aI51242
aI51243
aI51244
aI51245
aI51246
aI51247
aI51248
aI51249
aI51250
aI51251
aI51252
aI51253
aI51254
aI51255
aI51256
aI51257
aI51258
aI51259
aI51260
aI51261
aI51262
aI51263
aI51264
aI51265
aI51266
aI51267
aI51268
aI51269
aI51270
aI51271
aI51272
aI51273
aI51274
aI51275
aI51276
aI51277
aI51278
aI51279
aI51280
aI51281
aI51282
aI51283
aI51284
aI51285
aI51286
aI51287
aI51288
aI51289
aI51290
aI51291
aI51292
aI51293
aI51294
aI51295
aI51296
aI51297
aI51298
aI51299
aI51300
aI51301
aI51302
aI51303
aI51304
aI51305
aI51306
aI51307
aI51308
aI51309
aI51310
aI51311
aI51312
aI51313
aI51314
aI51315
aI51316
aI51317
aI51318
aI51319
aI51320
aI51321
aI51322
aI51323
aI51324
aI51325
aI51326
aI51327
aI51328
aI51329
aI51330
aI51331
aI51332
aI51333
aI51334
aI51335
aI51336
aI51337
aI51338
aI51339
aI51340
aI51341
aI51342
aI51343
aI51344
aI51345
aI51346
aI51347
aI51348
aI51349
aI51350
aI51351
aI51352
aI51353
aI51354
aI51355
aI51356
aI51357
aI51358
aI51359
aI51360
aI51361
aI51362
aI51363
aI51364
aI51365
aI51366
aI51367
aI51368
aI51369
aI51370
aI51371
aI51372
aI51373
aI51374
aI51375
aI51376
aI51377
aI51378
aI51379
aI51380
aI51381
aI51382
aI51383
aI51384
aI51385
aI51386
aI51387
aI51388
aI51389
aI51390
aI51391
aI51392
aI51393
aI51394
aI51395
aI51396
aI51397
aI51398
aI51399
aI51400
aI51401
aI51402
aI51403
aI51404
aI51405
aI51406
aI51407
aI51408
aI51409
aI51410
aI51411
aI51412
aI51413
aI51414
aI51415
aI51416
aI51417
aI51418
aI51419
aI51420
aI51421
aI51422
aI51423
aI51424
aI51425
aI51426
aI51427
aI51428
aI51429
aI51430
aI51431
aI51432
aI51433
aI51434
aI51435
aI51436
aI51437
aI51438
aI51439
aI51440
aI51441
aI51442
aI51443
aI51444
aI51445
aI51446
aI51447
aI51448
aI51449
aI51450
aI51451
aI51452
aI51453
aI51454
aI51455
aI51456
aI51457
aI51458
aI51459
aI51460
aI51461
aI51462
aI51463
aI51464
aI51465
aI51466
aI51467
aI51468
aI51469
aI51470
aI51471
aI51472
aI51473
aI51474
aI51475
aI51476
aI51477
aI51478
aI51479
aI51480
aI51481
aI51482
aI51483
aI51484
aI51485
aI51486
aI51487
aI51488
aI51489
aI51490
aI51491
aI51492
aI51493
aI51494
aI51495
aI51496
aI51497
aI51498
aI51499
aI51500
aI51501
aI51502
aI51503
aI51504
aI51505
aI51506
aI51507
aI51508
aI51509
aI51510
aI51511
aI51512
aI51513
aI51514
aI51515
aI51516
aI51517
aI51518
aI51519
aI51520
aI51521
aI51522
aI51523
aI51524
aI51525
aI51526
aI51527
aI51528
aI51529
aI51530
aI51531
aI51532
aI51533
aI51534
aI51535
aI51536
aI51537
aI51538
aI51539
aI51540
aI51541
aI51542
aI51543
aI51544
aI51545
aI51546
aI51547
aI51548
aI51549
aI51550
aI51551
aI51552
aI51553
aI51554
aI51555
aI51556
aI51557
aI51558
aI51559
aI51560
aI51561
aI51562
aI51563
aI51564
aI51565
aI51566
aI51567
aI51568
aI51569
aI51570
aI51571
aI51572
aI51573
aI51574
aI51575
aI51576
aI51577
aI51578
aI51579
aI51580
aI51581
aI51582
aI51583
aI51584
aI51585
aI51586
aI51587
aI51588
aI51589
aI51590
aI51591
aI51592
aI51593
aI51594
aI51595
aI51596
aI51597
aI51598
aI51599
aI51600
aI51601
aI51602
aI51603
aI51604
aI51605
aI51606
aI51607
aI51608
aI51609
aI51610
aI51611
aI51612
aI51613
aI51614
aI51615
aI51616
aI51617
aI51618
aI51619
aI51620
aI51621
aI51622
aI51623
aI51624
aI51625
aI51626
aI51627
aI51628
aI51629
aI51630
aI51631
aI51632
aI51633
aI51634
aI51635
aI51636
aI51637
aI51638
aI51639
aI51640
aI51641
aI51642
aI51643
aI51644
aI51645
aI51646
aI51647
aI51648
aI51649
aI51650
aI51651
aI51652
aI51653
aI51654
aI51655
aI51656
aI51657
aI51658
aI51659
aI51660
aI51661
aI51662
aI51663
aI51664
aI51665
aI51666
aI51667
aI51668
aI51669
aI51670
aI51671
aI51672
aI51673
aI51674
aI51675
aI51676
aI51677
aI51678
aI51679
aI51680
aI51681
aI51682
aI51683
aI51684
aI51685
aI51686
aI51687
aI51688
aI51689
aI51690
aI51691
aI51692
aI51693
aI51694
aI51695
aI51696
aI51697
aI51698
aI51699
aI51700
aI51701
aI51702
aI51703
aI51704
aI51705
aI51706
aI51707
aI51708
aI51709
aI51710
aI51711
aI51712
aI51713
aI51714
aI51715
aI51716
aI51717
aI51718
aI51719
aI51720
aI51721
aI51722
aI51723
aI51724
aI51725
aI51726
aI51727
aI51728
aI51729
aI51730
aI51731
aI51732
aI51733
aI51734
aI51735
aI51736
aI51737
aI51738
aI51739
aI51740
aI51741
aI51742
aI51743
aI51744
aI51745
aI51746
aI51747
aI51748
aI51749
aI51750
aI51751
aI51752
aI51753
aI51754
aI51755
aI51756
aI51757
aI51758
aI51759
aI51760
aI51761
aI51762
aI51763
aI51764
aI51765
aI51766
aI51767
aI51768
aI51769
aI51770
aI51771
aI51772
aI51773
aI51774
aI51775
aI51776
aI51777
aI51778
aI51779
aI51780
aI51781
aI51782
aI51783
aI51784
aI51785
aI51786
aI51787
aI51788
aI51789
aI51790
aI51791
aI51792
aI51793
aI51794
aI51795
aI51796
aI51797
aI51798
aI51799
aI51800
aI51801
aI51802
aI51803
aI51804
aI51805
aI51806
aI51807
aI51808
aI51809
aI51810
aI51811
aI51812
aI51813
aI51814
aI51815
aI51816
aI51817
aI51818
aI51819
aI51820
aI51821
aI51822
aI51823
aI51824
aI51825
aI51826
aI51827
aI51828
aI51829
aI51830
aI51831
aI51832
aI51833
aI51834
aI51835
aI51836
aI51837
aI51838
aI51839
aI51840
aI51841
aI51842
aI51843
aI51844
aI51845
aI51846
aI51847
aI51848
aI51849
aI51850
aI51851
aI51852
aI51853
aI51854
aI51855
aI51856
aI51857
aI51858
aI51859
aI51860
aI51861
aI51862
aI51863
aI51864
aI51865
aI51866
aI51867
aI51868
aI51869
aI51870
aI51871
aI51872
aI51873
aI51874
aI51875
aI51876
aI51877
aI51878
aI51879
aI51880
aI51881
aI51882
aI51883
aI51884
aI51885
aI51886
aI51887
aI51888
aI51889
aI51890
aI51891
aI51892
aI51893
aI51894
aI51895
aI51896
aI51897
aI51898
aI51899
aI51900
aI51901
aI51902
aI51903
aI51904
aI51905
aI51906
aI51907
aI51908
aI51909
aI51910
aI51911
aI51912
aI51913
aI51914
aI51915
aI51916
aI51917
aI51918
aI51919
aI51920
aI51921
aI51922
aI51923
aI51924
aI51925
aI51926
aI51927
aI51928
aI51929
aI51930
aI51931
aI51932
aI51933
aI51934
aI51935
aI51936
aI51937
aI51938
aI51939
aI51940
aI51941
aI51942
aI51943
aI51944
aI51945
aI51946
aI51947
aI51948
aI51949
aI51950
aI51951
aI51952
aI51953
aI51954
aI51955
aI51956
aI51957
aI51958
aI51959
aI51960
aI51961
aI51962
aI51963
aI51964
aI51965
aI51966
aI51967
aI51968
aI51969
aI51970
aI51971
aI51972
aI51973
aI51974
aI51975
aI51976
aI51977
aI51978
aI51979
aI51980
aI51981
aI51982
aI51983
aI51984
aI51985
aI51986
aI51987
aI51988
aI51989
aI51990
aI51991
aI51992
aI51993
aI51994
aI51995
aI51996
aI51997
aI51998
aI51999
aI52000
aI52001
aI52002
aI52003
aI52004
aI52005
aI52006
aI52007
aI52008
aI52009
aI52010
aI52011
aI52012
aI52013
aI52014
aI52015
aI52016
aI52017
aI52018
aI52019
aI52020
aI52021
aI52022
aI52023
aI52024
aI52025
aI52026
aI52027
aI52028
aI52029
aI52030
aI52031
aI52032
aI52033
aI52034
aI52035
aI52036
aI52037
aI52038
aI52039
aI52040
aI52041
aI52042
aI52043
aI52044
aI52045
aI52046
aI52047
aI52048
aI52049
aI52050
aI52051
aI52052
aI52053
aI52054
aI52055
aI52056
aI52057
aI52058
aI52059
aI52060
aI52061
aI52062
aI52063
aI52064
aI52065
aI52066
aI52067
aI52068
aI52069
aI52070
aI52071
aI52072
aI52073
aI52074
aI52075
aI52076
aI52077
aI52078
aI52079
aI52080
aI52081
aI52082
aI52083
aI52084
aI52085
aI52086
aI52087
aI52088
aI52089
aI52090
aI52091
aI52092
aI52093
aI52094
aI52095
aI52096
aI52097
aI52098
aI52099
aI52100
aI52101
aI52102
aI52103
aI52104
aI52105
aI52106
aI52107
aI52108
aI52109
aI52110
aI52111
aI52112
aI52113
aI52114
aI52115
aI52116
aI52117
aI52118
aI52119
aI52120
aI52121
aI52122
aI52123
aI52124
aI52125
aI52126
aI52127
aI52128
aI52129
aI52130
aI52131
aI52132
aI52133
aI52134
aI52135
aI52136
aI52137
aI52138
aI52139
aI52140
aI52141
aI52142
aI52143
aI52144
aI52145
aI52146
aI52147
aI52148
aI52149
aI52150
aI52151
aI52152
aI52153
aI52154
aI52155
aI52156
aI52157
aI52158
aI52159
aI52160
aI52161
aI52162
aI52163
aI52164
aI52165
aI52166
aI52167
aI52168
aI52169
aI52170
aI52171
aI52172
aI52173
aI52174
aI52175
aI52176
aI52177
aI52178
aI52179
aI52180
aI52181
aI52182
aI52183
aI52184
aI52185
aI52186
aI52187
aI52188
aI52189
aI52190
aI52191
aI52192
aI52193
aI52194
aI52195
aI52196
aI52197
aI52198
aI52199
aI52200
aI52201
aI52202
aI52203
aI52204
aI52205
aI52206
aI52207
aI52208
aI52209
aI52210
aI52211
aI52212
aI52213
aI52214
aI52215
aI52216
aI52217
aI52218
aI52219
aI52220
aI52221
aI52222
aI52223
aI52224
aI52225
aI52226
aI52227
aI52228
aI52229
aI52230
aI52231
aI52232
aI52233
aI52234
aI52235
aI52236
aI52237
aI52238
aI52239
aI52240
aI52241
aI52242
aI52243
aI52244
aI52245
aI52246
aI52247
aI52248
aI52249
aI52250
aI52251
aI52252
aI52253
aI52254
aI52255
aI52256
aI52257
aI52258
aI52259
aI52260
a.